(lp0
(S'cppflags'
p1
ccopy_reg
_reconstructor
p2
(cino.utils
SpaceList
p3
c__builtin__
list
p4
(lp5
S'-mmcu=atmega328p'
p6
aS'-DF_CPU=16000000L'
p7
aS'-DARDUINO=105'
p8
aS'-I/usr/share/arduino/hardware/arduino/cores/arduino'
p9
aS'-ffunction-sections'
p10
aS'-fdata-sections'
p11
aS'-g'
p12
aS'-Os'
p13
aS'-w'
p14
aS'-I/usr/share/arduino/hardware/arduino/variants/standard'
p15
aS'-Ilib/ShiftIn'
p16
aS'-I/usr/share/arduino/hardware/arduino/cores/arduino'
p17
aS'-I/usr/share/arduino/hardware/arduino/cores/arduino/avr-libc'
p18
aS'-I/usr/share/arduino/hardware/arduino/cores/arduino/Wire'
p19
aS'-I/usr/share/arduino/hardware/arduino/cores/arduino/Wire/src'
p20
aS'-I/usr/share/arduino/hardware/arduino/cores/arduino/Wire/src/utility'
p21
aS'-I/usr/share/arduino/hardware/arduino/cores/arduino/Wire/src/utility'
p22
atp23
Rp24
tp25
a(S'cxx'
p26
S'/usr/share/arduino/hardware/tools/avr/bin/avr-g++'
p27
tp28
a(S'arduino_libraries_dir'
p29
S'/usr/share/arduino/libraries'
p30
tp31
a(S'avrdude'
p32
S'/usr/share/arduino/hardware/tools/avrdude'
p33
tp34
a(S'ar'
p35
S'/usr/share/arduino/hardware/tools/avr/bin/avr-ar'
p36
tp37
a(S'names'
p38
(dp39
S'cpp'
p40
S'%s.cpp'
p41
sS'obj'
p42
S'%s.o'
p43
sS'lib'
p44
S'lib%s.a'
p45
sS'deps'
p46
S'%s.d'
p47
stp48
a(S'ldflags'
p49
g2
(g3
g4
(lp50
g6
aS'-Wl,-Os'
p51
aS'-Wl,--gc-sections'
p52
atp53
Rp54
tp55
a(S'arduino_lib_version'
p56
g2
(cino.environment
Version
p57
c__builtin__
tuple
p58
(I1
I0
I5
tp59
tp60
Rp61
tp62
a(S'objcopy'
p63
S'/usr/share/arduino/hardware/tools/avr/bin/avr-objcopy'
p64
tp65
a(S'board_models'
p66
cino.environment
BoardModels
p67
((lp68
(lp69
S'uno'
p70
a(dp71
S'bootloader'
p72
(dp73
S'extended_fuses'
p74
S'0x05'
p75
sS'high_fuses'
p76
S'0xde'
p77
sS'low_fuses'
p78
S'0xff'
p79
sS'lock_bits'
p80
S'0x0F'
p81
sS'file'
p82
S'optiboot_atmega328.hex'
p83
sS'path'
p84
S'optiboot'
p85
sS'unlock_bits'
p86
S'0x3F'
p87
ssS'upload'
p88
(dp89
S'speed'
p90
S'115200'
p91
sS'maximum_size'
p92
S'32256'
p93
sS'protocol'
p94
S'arduino'
p95
ssS'build'
p96
(dp97
S'core'
p98
S'arduino'
p99
sS'mcu'
p100
S'atmega328p'
p101
sS'f_cpu'
p102
S'16000000L'
p103
sS'variant'
p104
S'standard'
p105
ssS'name'
p106
S'Arduino Uno'
p107
sS'_coredir'
p108
S'/usr/share/arduino/hardware/arduino'
p109
saa(lp110
S'atmega328'
p111
a(dp112
S'bootloader'
p113
(dp114
S'extended_fuses'
p115
S'0x05'
p116
sS'high_fuses'
p117
S'0xDA'
p118
sS'low_fuses'
p119
S'0xFF'
p120
sS'lock_bits'
p121
S'0x0F'
p122
sS'file'
p123
S'ATmegaBOOT_168_atmega328.hex'
p124
sS'path'
p125
S'atmega'
p126
sS'unlock_bits'
p127
S'0x3F'
p128
ssS'upload'
p129
(dp130
S'speed'
p131
S'57600'
p132
sS'maximum_size'
p133
S'30720'
p134
sS'protocol'
p135
S'arduino'
p136
ssS'build'
p137
(dp138
S'core'
p139
S'arduino'
p140
sS'mcu'
p141
S'atmega328p'
p142
sS'f_cpu'
p143
S'16000000L'
p144
sS'variant'
p145
S'standard'
p146
ssS'name'
p147
S'Arduino Duemilanove w/ ATmega328'
p148
sg108
S'/usr/share/arduino/hardware/arduino'
p149
saa(lp150
S'diecimila'
p151
a(dp152
S'bootloader'
p153
(dp154
S'extended_fuses'
p155
S'0x00'
p156
sS'high_fuses'
p157
S'0xdd'
p158
sS'low_fuses'
p159
S'0xff'
p160
sS'lock_bits'
p161
S'0x0F'
p162
sS'file'
p163
S'ATmegaBOOT_168_diecimila.hex'
p164
sS'path'
p165
S'atmega'
p166
sS'unlock_bits'
p167
S'0x3F'
p168
ssS'upload'
p169
(dp170
S'speed'
p171
S'19200'
p172
sS'maximum_size'
p173
S'14336'
p174
sS'protocol'
p175
S'arduino'
p176
ssS'build'
p177
(dp178
S'core'
p179
S'arduino'
p180
sS'mcu'
p181
S'atmega168'
p182
sS'f_cpu'
p183
S'16000000L'
p184
sS'variant'
p185
S'standard'
p186
ssS'name'
p187
S'Arduino Diecimila or Duemilanove w/ ATmega168'
p188
sg108
S'/usr/share/arduino/hardware/arduino'
p189
saa(lp190
S'nano328'
p191
a(dp192
S'bootloader'
p193
(dp194
S'extended_fuses'
p195
S'0x05'
p196
sS'high_fuses'
p197
S'0xDA'
p198
sS'low_fuses'
p199
S'0xFF'
p200
sS'lock_bits'
p201
S'0x0F'
p202
sS'file'
p203
S'ATmegaBOOT_168_atmega328.hex'
p204
sS'path'
p205
S'atmega'
p206
sS'unlock_bits'
p207
S'0x3F'
p208
ssS'upload'
p209
(dp210
S'speed'
p211
S'57600'
p212
sS'maximum_size'
p213
S'30720'
p214
sS'protocol'
p215
S'arduino'
p216
ssS'build'
p217
(dp218
S'core'
p219
S'arduino'
p220
sS'mcu'
p221
S'atmega328p'
p222
sS'f_cpu'
p223
S'16000000L'
p224
sS'variant'
p225
S'eightanaloginputs'
p226
ssS'name'
p227
S'Arduino Nano w/ ATmega328'
p228
sg108
S'/usr/share/arduino/hardware/arduino'
p229
saa(lp230
S'nano'
p231
a(dp232
S'bootloader'
p233
(dp234
S'extended_fuses'
p235
S'0x00'
p236
sS'high_fuses'
p237
S'0xdd'
p238
sS'low_fuses'
p239
S'0xff'
p240
sS'lock_bits'
p241
S'0x0F'
p242
sS'file'
p243
S'ATmegaBOOT_168_diecimila.hex'
p244
sS'path'
p245
S'atmega'
p246
sS'unlock_bits'
p247
S'0x3F'
p248
ssS'upload'
p249
(dp250
S'speed'
p251
S'19200'
p252
sS'maximum_size'
p253
S'14336'
p254
sS'protocol'
p255
S'arduino'
p256
ssS'build'
p257
(dp258
S'core'
p259
S'arduino'
p260
sS'mcu'
p261
S'atmega168'
p262
sS'f_cpu'
p263
S'16000000L'
p264
sS'variant'
p265
S'eightanaloginputs'
p266
ssS'name'
p267
S'Arduino Nano w/ ATmega168'
p268
sg108
S'/usr/share/arduino/hardware/arduino'
p269
saa(lp270
S'mega2560'
p271
a(dp272
S'bootloader'
p273
(dp274
S'extended_fuses'
p275
S'0xFD'
p276
sS'high_fuses'
p277
S'0xD8'
p278
sS'low_fuses'
p279
S'0xFF'
p280
sS'lock_bits'
p281
S'0x0F'
p282
sS'file'
p283
S'stk500boot_v2_mega2560.hex'
p284
sS'path'
p285
S'stk500v2'
p286
sS'unlock_bits'
p287
S'0x3F'
p288
ssS'upload'
p289
(dp290
S'speed'
p291
S'115200'
p292
sS'maximum_size'
p293
S'258048'
p294
sS'protocol'
p295
S'wiring'
p296
ssS'build'
p297
(dp298
S'core'
p299
S'arduino'
p300
sS'mcu'
p301
S'atmega2560'
p302
sS'f_cpu'
p303
S'16000000L'
p304
sS'variant'
p305
S'mega'
p306
ssS'name'
p307
S'Arduino Mega 2560 or Mega ADK'
p308
sg108
S'/usr/share/arduino/hardware/arduino'
p309
saa(lp310
S'mega'
p311
a(dp312
S'bootloader'
p313
(dp314
S'extended_fuses'
p315
S'0xF5'
p316
sS'high_fuses'
p317
S'0xDA'
p318
sS'low_fuses'
p319
S'0xFF'
p320
sS'lock_bits'
p321
S'0x0F'
p322
sS'file'
p323
S'ATmegaBOOT_168_atmega1280.hex'
p324
sS'path'
p325
S'atmega'
p326
sS'unlock_bits'
p327
S'0x3F'
p328
ssS'upload'
p329
(dp330
S'speed'
p331
S'57600'
p332
sS'maximum_size'
p333
S'126976'
p334
sS'protocol'
p335
S'arduino'
p336
ssS'build'
p337
(dp338
S'core'
p339
S'arduino'
p340
sS'mcu'
p341
S'atmega1280'
p342
sS'f_cpu'
p343
S'16000000L'
p344
sS'variant'
p345
S'mega'
p346
ssS'name'
p347
S'Arduino Mega (ATmega1280)'
p348
sg108
S'/usr/share/arduino/hardware/arduino'
p349
saa(lp350
S'leonardo'
p351
a(dp352
S'bootloader'
p353
(dp354
S'extended_fuses'
p355
S'0xcb'
p356
sS'high_fuses'
p357
S'0xd8'
p358
sS'low_fuses'
p359
S'0xff'
p360
sS'lock_bits'
p361
S'0x2F'
p362
sS'file'
p363
S'Caterina-Leonardo.hex'
p364
sS'path'
p365
S'caterina'
p366
sS'unlock_bits'
p367
S'0x3F'
p368
ssS'upload'
p369
(dp370
S'speed'
p371
S'57600'
p372
sS'maximum_size'
p373
S'28672'
p374
sS'protocol'
p375
S'avr109'
p376
sS'disable_flushing'
p377
S'true'
p378
ssS'build'
p379
(dp380
S'core'
p381
S'arduino'
p382
sS'f_cpu'
p383
S'16000000L'
p384
sS'vid'
p385
S'0x2341'
p386
sS'pid'
p387
S'0x8036'
p388
sS'variant'
p389
S'leonardo'
p390
sS'mcu'
p391
S'atmega32u4'
p392
ssS'name'
p393
S'Arduino Leonardo'
p394
sg108
S'/usr/share/arduino/hardware/arduino'
p395
saa(lp396
S'esplora'
p397
a(dp398
S'bootloader'
p399
(dp400
S'extended_fuses'
p401
S'0xcb'
p402
sS'high_fuses'
p403
S'0xd8'
p404
sS'low_fuses'
p405
S'0xff'
p406
sS'lock_bits'
p407
S'0x2F'
p408
sS'file'
p409
S'Caterina-Esplora.hex'
p410
sS'path'
p411
S'caterina'
p412
sS'unlock_bits'
p413
S'0x3F'
p414
ssS'upload'
p415
(dp416
S'speed'
p417
S'57600'
p418
sS'maximum_size'
p419
S'28672'
p420
sS'protocol'
p421
S'avr109'
p422
sS'disable_flushing'
p423
S'true'
p424
ssS'build'
p425
(dp426
S'core'
p427
S'arduino'
p428
sS'f_cpu'
p429
S'16000000L'
p430
sS'vid'
p431
S'0x2341'
p432
sS'pid'
p433
S'0x803C'
p434
sS'variant'
p435
S'leonardo'
p436
sS'mcu'
p437
S'atmega32u4'
p438
ssS'name'
p439
S'Arduino Esplora'
p440
sg108
S'/usr/share/arduino/hardware/arduino'
p441
saa(lp442
S'micro'
p443
a(dp444
S'bootloader'
p445
(dp446
S'extended_fuses'
p447
S'0xcb'
p448
sS'high_fuses'
p449
S'0xd8'
p450
sS'low_fuses'
p451
S'0xff'
p452
sS'lock_bits'
p453
S'0x2F'
p454
sS'file'
p455
S'Caterina-Micro.hex'
p456
sS'path'
p457
S'caterina'
p458
sS'unlock_bits'
p459
S'0x3F'
p460
ssS'upload'
p461
(dp462
S'speed'
p463
S'57600'
p464
sS'maximum_size'
p465
S'28672'
p466
sS'protocol'
p467
S'avr109'
p468
sS'disable_flushing'
p469
S'true'
p470
ssS'build'
p471
(dp472
S'core'
p473
S'arduino'
p474
sS'f_cpu'
p475
S'16000000L'
p476
sS'vid'
p477
S'0x2341'
p478
sS'pid'
p479
S'0x8037'
p480
sS'variant'
p481
S'micro'
p482
sS'mcu'
p483
S'atmega32u4'
p484
ssS'name'
p485
S'Arduino Micro'
p486
sg108
S'/usr/share/arduino/hardware/arduino'
p487
saa(lp488
S'mini328'
p489
a(dp490
S'bootloader'
p491
(dp492
S'extended_fuses'
p493
S'0x05'
p494
sS'high_fuses'
p495
S'0xd8'
p496
sS'low_fuses'
p497
S'0xff'
p498
sS'lock_bits'
p499
S'0x0F'
p500
sS'file'
p501
S'optiboot_atmega328-Mini.hex'
p502
sS'path'
p503
S'optiboot'
p504
sS'unlock_bits'
p505
S'0x3F'
p506
ssS'upload'
p507
(dp508
S'speed'
p509
S'115200'
p510
sS'maximum_size'
p511
S'28672'
p512
sS'protocol'
p513
S'arduino'
p514
ssS'build'
p515
(dp516
S'core'
p517
S'arduino'
p518
sS'mcu'
p519
S'atmega328p'
p520
sS'f_cpu'
p521
S'16000000L'
p522
sS'variant'
p523
S'eightanaloginputs'
p524
ssS'name'
p525
S'Arduino Mini w/ ATmega328'
p526
sg108
S'/usr/share/arduino/hardware/arduino'
p527
saa(lp528
S'mini'
p529
a(dp530
S'bootloader'
p531
(dp532
S'extended_fuses'
p533
S'0x00'
p534
sS'high_fuses'
p535
S'0xdd'
p536
sS'low_fuses'
p537
S'0xff'
p538
sS'lock_bits'
p539
S'0x0F'
p540
sS'file'
p541
S'ATmegaBOOT_168_ng.hex'
p542
sS'path'
p543
S'atmega'
p544
sS'unlock_bits'
p545
S'0x3F'
p546
ssS'upload'
p547
(dp548
S'speed'
p549
S'19200'
p550
sS'maximum_size'
p551
S'14336'
p552
sS'protocol'
p553
S'arduino'
p554
ssS'build'
p555
(dp556
S'core'
p557
S'arduino'
p558
sS'mcu'
p559
S'atmega168'
p560
sS'f_cpu'
p561
S'16000000L'
p562
sS'variant'
p563
S'eightanaloginputs'
p564
ssS'name'
p565
S'Arduino Mini w/ ATmega168'
p566
sg108
S'/usr/share/arduino/hardware/arduino'
p567
saa(lp568
S'ethernet'
p569
a(dp570
S'bootloader'
p571
(dp572
S'extended_fuses'
p573
S'0x05'
p574
sS'high_fuses'
p575
S'0xde'
p576
sS'low_fuses'
p577
S'0xff'
p578
sS'lock_bits'
p579
S'0x0F'
p580
sS'file'
p581
S'optiboot_atmega328.hex'
p582
sS'path'
p583
S'optiboot'
p584
sS'unlock_bits'
p585
S'0x3F'
p586
ssS'upload'
p587
(dp588
S'speed'
p589
S'115200'
p590
sS'maximum_size'
p591
S'32256'
p592
sS'protocol'
p593
S'arduino'
p594
ssS'build'
p595
(dp596
S'f_cpu'
p597
S'16000000L'
p598
sS'mcu'
p599
S'atmega328p'
p600
sS'variant'
p601
S'standard'
p602
sS'core'
p603
S'arduino'
p604
ssS'name'
p605
S'Arduino Ethernet'
p606
sg108
S'/usr/share/arduino/hardware/arduino'
p607
saa(lp608
S'fio'
p609
a(dp610
S'bootloader'
p611
(dp612
S'extended_fuses'
p613
S'0x05'
p614
sS'high_fuses'
p615
S'0xDA'
p616
sS'low_fuses'
p617
S'0xFF'
p618
sS'lock_bits'
p619
S'0x0F'
p620
sS'file'
p621
S'ATmegaBOOT_168_atmega328_pro_8MHz.hex'
p622
sS'path'
p623
S'arduino:atmega'
p624
sS'unlock_bits'
p625
S'0x3F'
p626
ssS'upload'
p627
(dp628
S'speed'
p629
S'57600'
p630
sS'maximum_size'
p631
S'30720'
p632
sS'protocol'
p633
S'arduino'
p634
ssS'build'
p635
(dp636
S'core'
p637
S'arduino'
p638
sS'mcu'
p639
S'atmega328p'
p640
sS'f_cpu'
p641
S'8000000L'
p642
sS'variant'
p643
S'eightanaloginputs'
p644
ssS'name'
p645
S'Arduino Fio'
p646
sg108
S'/usr/share/arduino/hardware/arduino'
p647
saa(lp648
S'bt328'
p649
a(dp650
S'bootloader'
p651
(dp652
S'extended_fuses'
p653
S'0x05'
p654
sS'high_fuses'
p655
S'0xd8'
p656
sS'low_fuses'
p657
S'0xff'
p658
sS'lock_bits'
p659
S'0x0F'
p660
sS'file'
p661
S'ATmegaBOOT_168_atmega328_bt.hex'
p662
sS'path'
p663
S'bt'
p664
sS'unlock_bits'
p665
S'0x3F'
p666
ssS'upload'
p667
(dp668
S'speed'
p669
S'19200'
p670
sS'maximum_size'
p671
S'28672'
p672
sS'protocol'
p673
S'arduino'
p674
sS'disable_flushing'
p675
S'true'
p676
ssS'build'
p677
(dp678
S'core'
p679
S'arduino'
p680
sS'mcu'
p681
S'atmega328p'
p682
sS'f_cpu'
p683
S'16000000L'
p684
sS'variant'
p685
S'eightanaloginputs'
p686
ssS'name'
p687
S'Arduino BT w/ ATmega328'
p688
sg108
S'/usr/share/arduino/hardware/arduino'
p689
saa(lp690
S'bt'
p691
a(dp692
S'bootloader'
p693
(dp694
S'extended_fuses'
p695
S'0x00'
p696
sS'high_fuses'
p697
S'0xdd'
p698
sS'low_fuses'
p699
S'0xff'
p700
sS'lock_bits'
p701
S'0x0F'
p702
sS'file'
p703
S'ATmegaBOOT_168.hex'
p704
sS'path'
p705
S'bt'
p706
sS'unlock_bits'
p707
S'0x3F'
p708
ssS'upload'
p709
(dp710
S'speed'
p711
S'19200'
p712
sS'maximum_size'
p713
S'14336'
p714
sS'protocol'
p715
S'arduino'
p716
sS'disable_flushing'
p717
S'true'
p718
ssS'build'
p719
(dp720
S'core'
p721
S'arduino'
p722
sS'mcu'
p723
S'atmega168'
p724
sS'f_cpu'
p725
S'16000000L'
p726
sS'variant'
p727
S'eightanaloginputs'
p728
ssS'name'
p729
S'Arduino BT w/ ATmega168'
p730
sg108
S'/usr/share/arduino/hardware/arduino'
p731
saa(lp732
S'LilyPadUSB'
p733
a(dp734
S'bootloader'
p735
(dp736
S'extended_fuses'
p737
S'0xce'
p738
sS'high_fuses'
p739
S'0xd8'
p740
sS'low_fuses'
p741
S'0xff'
p742
sS'lock_bits'
p743
S'0x2F'
p744
sS'file'
p745
S'Caterina-LilyPadUSB.hex'
p746
sS'path'
p747
S'caterina-LilyPadUSB'
p748
sS'unlock_bits'
p749
S'0x3F'
p750
ssS'upload'
p751
(dp752
S'speed'
p753
S'57600'
p754
sS'maximum_size'
p755
S'28672'
p756
sS'protocol'
p757
S'avr109'
p758
sS'disable_flushing'
p759
S'true'
p760
ssS'build'
p761
(dp762
S'core'
p763
S'arduino'
p764
sS'f_cpu'
p765
S'8000000L'
p766
sS'vid'
p767
S'0x1B4F'
p768
sS'pid'
p769
S'0x9208'
p770
sS'variant'
p771
S'leonardo'
p772
sS'mcu'
p773
S'atmega32u4'
p774
ssS'name'
p775
S'LilyPad Arduino USB'
p776
sg108
S'/usr/share/arduino/hardware/arduino'
p777
saa(lp778
S'lilypad328'
p779
a(dp780
S'bootloader'
p781
(dp782
S'extended_fuses'
p783
S'0x05'
p784
sS'high_fuses'
p785
S'0xDA'
p786
sS'low_fuses'
p787
S'0xFF'
p788
sS'lock_bits'
p789
S'0x0F'
p790
sS'file'
p791
S'ATmegaBOOT_168_atmega328_pro_8MHz.hex'
p792
sS'path'
p793
S'atmega'
p794
sS'unlock_bits'
p795
S'0x3F'
p796
ssS'upload'
p797
(dp798
S'speed'
p799
S'57600'
p800
sS'maximum_size'
p801
S'30720'
p802
sS'protocol'
p803
S'arduino'
p804
ssS'build'
p805
(dp806
S'core'
p807
S'arduino'
p808
sS'mcu'
p809
S'atmega328p'
p810
sS'f_cpu'
p811
S'8000000L'
p812
sS'variant'
p813
S'standard'
p814
ssS'name'
p815
S'LilyPad Arduino w/ ATmega328'
p816
sg108
S'/usr/share/arduino/hardware/arduino'
p817
saa(lp818
S'lilypad'
p819
a(dp820
S'bootloader'
p821
(dp822
S'extended_fuses'
p823
S'0x00'
p824
sS'high_fuses'
p825
S'0xdd'
p826
sS'low_fuses'
p827
S'0xe2'
p828
sS'lock_bits'
p829
S'0x0F'
p830
sS'file'
p831
S'LilyPadBOOT_168.hex'
p832
sS'path'
p833
S'lilypad'
p834
sS'unlock_bits'
p835
S'0x3F'
p836
ssS'upload'
p837
(dp838
S'speed'
p839
S'19200'
p840
sS'maximum_size'
p841
S'14336'
p842
sS'protocol'
p843
S'arduino'
p844
ssS'build'
p845
(dp846
S'core'
p847
S'arduino'
p848
sS'mcu'
p849
S'atmega168'
p850
sS'f_cpu'
p851
S'8000000L'
p852
sS'variant'
p853
S'standard'
p854
ssS'name'
p855
S'LilyPad Arduino w/ ATmega168'
p856
sg108
S'/usr/share/arduino/hardware/arduino'
p857
saa(lp858
S'pro5v328'
p859
a(dp860
S'bootloader'
p861
(dp862
S'extended_fuses'
p863
S'0x05'
p864
sS'high_fuses'
p865
S'0xDA'
p866
sS'low_fuses'
p867
S'0xFF'
p868
sS'lock_bits'
p869
S'0x0F'
p870
sS'file'
p871
S'ATmegaBOOT_168_atmega328.hex'
p872
sS'path'
p873
S'atmega'
p874
sS'unlock_bits'
p875
S'0x3F'
p876
ssS'upload'
p877
(dp878
S'speed'
p879
S'57600'
p880
sS'maximum_size'
p881
S'30720'
p882
sS'protocol'
p883
S'arduino'
p884
ssS'build'
p885
(dp886
S'core'
p887
S'arduino'
p888
sS'mcu'
p889
S'atmega328p'
p890
sS'f_cpu'
p891
S'16000000L'
p892
sS'variant'
p893
S'standard'
p894
ssS'name'
p895
S'Arduino Pro or Pro Mini (5V, 16 MHz) w/ ATmega328'
p896
sg108
S'/usr/share/arduino/hardware/arduino'
p897
saa(lp898
S'pro5v'
p899
a(dp900
S'bootloader'
p901
(dp902
S'extended_fuses'
p903
S'0x00'
p904
sS'high_fuses'
p905
S'0xdd'
p906
sS'low_fuses'
p907
S'0xff'
p908
sS'lock_bits'
p909
S'0x0F'
p910
sS'file'
p911
S'ATmegaBOOT_168_diecimila.hex'
p912
sS'path'
p913
S'atmega'
p914
sS'unlock_bits'
p915
S'0x3F'
p916
ssS'upload'
p917
(dp918
S'speed'
p919
S'19200'
p920
sS'maximum_size'
p921
S'14336'
p922
sS'protocol'
p923
S'arduino'
p924
ssS'build'
p925
(dp926
S'core'
p927
S'arduino'
p928
sS'mcu'
p929
S'atmega168'
p930
sS'f_cpu'
p931
S'16000000L'
p932
sS'variant'
p933
S'standard'
p934
ssS'name'
p935
S'Arduino Pro or Pro Mini (5V, 16 MHz) w/ ATmega168'
p936
sg108
S'/usr/share/arduino/hardware/arduino'
p937
saa(lp938
S'pro328'
p939
a(dp940
S'bootloader'
p941
(dp942
S'extended_fuses'
p943
S'0x05'
p944
sS'high_fuses'
p945
S'0xDA'
p946
sS'low_fuses'
p947
S'0xFF'
p948
sS'lock_bits'
p949
S'0x0F'
p950
sS'file'
p951
S'ATmegaBOOT_168_atmega328_pro_8MHz.hex'
p952
sS'path'
p953
S'atmega'
p954
sS'unlock_bits'
p955
S'0x3F'
p956
ssS'upload'
p957
(dp958
S'speed'
p959
S'57600'
p960
sS'maximum_size'
p961
S'30720'
p962
sS'protocol'
p963
S'arduino'
p964
ssS'build'
p965
(dp966
S'core'
p967
S'arduino'
p968
sS'mcu'
p969
S'atmega328p'
p970
sS'f_cpu'
p971
S'8000000L'
p972
sS'variant'
p973
S'standard'
p974
ssS'name'
p975
S'Arduino Pro or Pro Mini (3.3V, 8 MHz) w/ ATmega328'
p976
sg108
S'/usr/share/arduino/hardware/arduino'
p977
saa(lp978
S'pro'
p979
a(dp980
S'bootloader'
p981
(dp982
S'extended_fuses'
p983
S'0x00'
p984
sS'high_fuses'
p985
S'0xdd'
p986
sS'low_fuses'
p987
S'0xc6'
p988
sS'lock_bits'
p989
S'0x0F'
p990
sS'file'
p991
S'ATmegaBOOT_168_pro_8MHz.hex'
p992
sS'path'
p993
S'atmega'
p994
sS'unlock_bits'
p995
S'0x3F'
p996
ssS'upload'
p997
(dp998
S'speed'
p999
S'19200'
p1000
sS'maximum_size'
p1001
S'14336'
p1002
sS'protocol'
p1003
S'arduino'
p1004
ssS'build'
p1005
(dp1006
S'core'
p1007
S'arduino'
p1008
sS'mcu'
p1009
S'atmega168'
p1010
sS'f_cpu'
p1011
S'8000000L'
p1012
sS'variant'
p1013
S'standard'
p1014
ssS'name'
p1015
S'Arduino Pro or Pro Mini (3.3V, 8 MHz) w/ ATmega168'
p1016
sg108
S'/usr/share/arduino/hardware/arduino'
p1017
saa(lp1018
S'atmega168'
p1019
a(dp1020
S'bootloader'
p1021
(dp1022
S'extended_fuses'
p1023
S'0x00'
p1024
sS'high_fuses'
p1025
S'0xdd'
p1026
sS'low_fuses'
p1027
S'0xff'
p1028
sS'lock_bits'
p1029
S'0x0F'
p1030
sS'file'
p1031
S'ATmegaBOOT_168_ng.hex'
p1032
sS'path'
p1033
S'atmega'
p1034
sS'unlock_bits'
p1035
S'0x3F'
p1036
ssS'upload'
p1037
(dp1038
S'speed'
p1039
S'19200'
p1040
sS'maximum_size'
p1041
S'14336'
p1042
sS'protocol'
p1043
S'arduino'
p1044
ssS'build'
p1045
(dp1046
S'core'
p1047
S'arduino'
p1048
sS'mcu'
p1049
S'atmega168'
p1050
sS'f_cpu'
p1051
S'16000000L'
p1052
sS'variant'
p1053
S'standard'
p1054
ssS'name'
p1055
S'Arduino NG or older w/ ATmega168'
p1056
sg108
S'/usr/share/arduino/hardware/arduino'
p1057
saa(lp1058
S'atmega8'
p1059
a(dp1060
S'bootloader'
p1061
(dp1062
S'high_fuses'
p1063
S'0xca'
p1064
sS'low_fuses'
p1065
S'0xdf'
p1066
sS'lock_bits'
p1067
S'0x0F'
p1068
sS'file'
p1069
S'ATmegaBOOT-prod-firmware-2009-11-07.hex'
p1070
sS'path'
p1071
S'atmega8'
p1072
sS'unlock_bits'
p1073
S'0x3F'
p1074
ssS'upload'
p1075
(dp1076
S'speed'
p1077
S'19200'
p1078
sS'maximum_size'
p1079
S'7168'
p1080
sS'protocol'
p1081
S'arduino'
p1082
ssS'build'
p1083
(dp1084
S'core'
p1085
S'arduino'
p1086
sS'mcu'
p1087
S'atmega8'
p1088
sS'f_cpu'
p1089
S'16000000L'
p1090
sS'variant'
p1091
S'standard'
p1092
ssS'name'
p1093
S'Arduino NG or older w/ ATmega8'
p1094
sg108
S'/usr/share/arduino/hardware/arduino'
p1095
saa(lp1096
S'robotControl'
p1097
a(dp1098
S'bootloader'
p1099
(dp1100
S'extended_fuses'
p1101
S'0xcb'
p1102
sS'high_fuses'
p1103
S'0xd8'
p1104
sS'low_fuses'
p1105
S'0xff'
p1106
sS'lock_bits'
p1107
S'0x2F'
p1108
sS'file'
p1109
S'Caterina-Robot-Control.hex'
p1110
sS'path'
p1111
S'caterina-Arduino_Robot'
p1112
sS'unlock_bits'
p1113
S'0x3F'
p1114
ssS'upload'
p1115
(dp1116
S'speed'
p1117
S'57600'
p1118
sS'maximum_size'
p1119
S'28672'
p1120
sS'protocol'
p1121
S'avr109'
p1122
sS'disable_flushing'
p1123
S'true'
p1124
ssS'build'
p1125
(dp1126
S'core'
p1127
S'robot'
p1128
sS'f_cpu'
p1129
S'16000000L'
p1130
sS'vid'
p1131
S'0x2341'
p1132
sS'pid'
p1133
S'0x8038'
p1134
sS'variant'
p1135
S'robot_control'
p1136
sS'mcu'
p1137
S'atmega32u4'
p1138
ssS'name'
p1139
S'Arduino Robot Control'
p1140
sg108
S'/usr/share/arduino/hardware/arduino'
p1141
saa(lp1142
S'robotMotor'
p1143
a(dp1144
S'bootloader'
p1145
(dp1146
S'extended_fuses'
p1147
S'0xcb'
p1148
sS'high_fuses'
p1149
S'0xd8'
p1150
sS'low_fuses'
p1151
S'0xff'
p1152
sS'lock_bits'
p1153
S'0x2F'
p1154
sS'file'
p1155
S'Caterina-Robot-Motor.hex'
p1156
sS'path'
p1157
S'caterina-Arduino_Robot'
p1158
sS'unlock_bits'
p1159
S'0x3F'
p1160
ssS'upload'
p1161
(dp1162
S'speed'
p1163
S'57600'
p1164
sS'maximum_size'
p1165
S'28672'
p1166
sS'protocol'
p1167
S'avr109'
p1168
sS'disable_flushing'
p1169
S'true'
p1170
ssS'build'
p1171
(dp1172
S'core'
p1173
S'robot'
p1174
sS'f_cpu'
p1175
S'16000000L'
p1176
sS'vid'
p1177
S'0x2341'
p1178
sS'pid'
p1179
S'0x8039'
p1180
sS'variant'
p1181
S'robot_motor'
p1182
sS'mcu'
p1183
S'atmega32u4'
p1184
ssS'name'
p1185
S'Arduino Robot Motor'
p1186
sg108
S'/usr/share/arduino/hardware/arduino'
p1187
saatp1188
Rp1189
(dp1190
S'default'
p1191
S'uno'
p1192
sbtp1193
a(S'used_libs'
p1194
(lp1195
S'lib/ShiftIn'
p1196
aS'/usr/share/arduino/hardware/arduino/cores/arduino'
p1197
atp1198
a(S'make'
p1199
S'/usr/share/arduino/hardware/tools/avr/bin/make'
p1200
tp1201
a(S'build_dir'
p1202
S'.build/uno'
p1203
tp1204
a(S'cc'
p1205
S'/usr/share/arduino/hardware/tools/avr/bin/avr-gcc'
p1206
tp1207
a(S'cflags'
p1208
g2
(g3
g4
(lp1209
tp1210
Rp1211
tp1212
a(S'cxxflags'
p1213
g2
(g3
g4
(lp1214
S'-fno-exceptions'
p1215
atp1216
Rp1217
tp1218
a(S'arduino_variants_dir'
p1219
S'/usr/share/arduino/hardware/arduino/variants'
p1220
tp1221
a(S'stty'
p1222
S'/bin/stty'
p1223
tp1224
a(S'version.txt'
p1225
S'/usr/share/arduino/lib/version.txt'
p1226
tp1227
a(S'arduino_core_dir'
p1228
g1197
tp1229
a(S'boards.txt'
p1230
(lp1231
S'/usr/share/arduino/hardware/arduino/boards.txt'
p1232
atp1233
a(S'avrdude.conf'
p1234
S'/usr/share/arduino/hardware/tools/avrdude.conf'
p1235
tp1236
a(S'deps'
p1237
g2
(g3
g4
(lp1238
S'.build/uno/src/dependencies.d'
p1239
aS'.build/uno/arduino/dependencies.d'
p1240
aS'.build/uno/ShiftIn/dependencies.d'
p1241
atp1242
Rp1243
tp1244
a.