(lp0
(S'cppflags'
p1
ccopy_reg
_reconstructor
p2
(cino.utils
SpaceList
p3
c__builtin__
list
p4
(lp5
S'-mmcu=atmega328p'
p6
aS'-DF_CPU=16000000L'
p7
aS'-DARDUINO=105'
p8
aS'-I/usr/share/arduino/hardware/arduino/cores/arduino'
p9
aS'-ffunction-sections'
p10
aS'-fdata-sections'
p11
aS'-g'
p12
aS'-Os'
p13
aS'-w'
p14
aS'-I/usr/share/arduino/hardware/arduino/variants/standard'
p15
aS'-Ilib/ShiftIn'
p16
aS'-Ilib/ShiftOut'
p17
aS'-I/usr/share/arduino/hardware/arduino/cores/arduino'
p18
aS'-I/usr/share/arduino/hardware/arduino/cores/arduino/avr-libc'
p19
aS'-I/usr/share/arduino/hardware/arduino/cores/arduino/Wire'
p20
aS'-I/usr/share/arduino/hardware/arduino/cores/arduino/Wire/src'
p21
aS'-I/usr/share/arduino/hardware/arduino/cores/arduino/Wire/src/utility'
p22
aS'-I/usr/share/arduino/hardware/arduino/cores/arduino/Wire/src/utility'
p23
atp24
Rp25
tp26
a(S'cxx'
p27
S'/usr/share/arduino/hardware/tools/avr/bin/avr-g++'
p28
tp29
a(S'build_dir'
p30
S'.build/uno'
p31
tp32
a(S'avrdude'
p33
S'/usr/share/arduino/hardware/tools/avrdude'
p34
tp35
a(S'ar'
p36
S'/usr/share/arduino/hardware/tools/avr/bin/avr-ar'
p37
tp38
a(S'names'
p39
(dp40
S'cpp'
p41
S'%s.cpp'
p42
sS'obj'
p43
S'%s.o'
p44
sS'lib'
p45
S'lib%s.a'
p46
sS'deps'
p47
S'%s.d'
p48
stp49
a(S'ldflags'
p50
g2
(g3
g4
(lp51
g6
aS'-Wl,-Os'
p52
aS'-Wl,--gc-sections'
p53
atp54
Rp55
tp56
a(S'arduino_lib_version'
p57
g2
(cino.environment
Version
p58
c__builtin__
tuple
p59
(I1
I0
I5
tp60
tp61
Rp62
tp63
a(S'objcopy'
p64
S'/usr/share/arduino/hardware/tools/avr/bin/avr-objcopy'
p65
tp66
a(S'board_models'
p67
cino.environment
BoardModels
p68
((lp69
(lp70
S'uno'
p71
a(dp72
S'bootloader'
p73
(dp74
S'extended_fuses'
p75
S'0x05'
p76
sS'high_fuses'
p77
S'0xde'
p78
sS'low_fuses'
p79
S'0xff'
p80
sS'lock_bits'
p81
S'0x0F'
p82
sS'file'
p83
S'optiboot_atmega328.hex'
p84
sS'path'
p85
S'optiboot'
p86
sS'unlock_bits'
p87
S'0x3F'
p88
ssS'upload'
p89
(dp90
S'speed'
p91
S'115200'
p92
sS'maximum_size'
p93
S'32256'
p94
sS'protocol'
p95
S'arduino'
p96
ssS'build'
p97
(dp98
S'core'
p99
S'arduino'
p100
sS'mcu'
p101
S'atmega328p'
p102
sS'f_cpu'
p103
S'16000000L'
p104
sS'variant'
p105
S'standard'
p106
ssS'name'
p107
S'Arduino Uno'
p108
sS'_coredir'
p109
S'/usr/share/arduino/hardware/arduino'
p110
saa(lp111
S'atmega328'
p112
a(dp113
S'bootloader'
p114
(dp115
S'extended_fuses'
p116
S'0x05'
p117
sS'high_fuses'
p118
S'0xDA'
p119
sS'low_fuses'
p120
S'0xFF'
p121
sS'lock_bits'
p122
S'0x0F'
p123
sS'file'
p124
S'ATmegaBOOT_168_atmega328.hex'
p125
sS'path'
p126
S'atmega'
p127
sS'unlock_bits'
p128
S'0x3F'
p129
ssS'upload'
p130
(dp131
S'speed'
p132
S'57600'
p133
sS'maximum_size'
p134
S'30720'
p135
sS'protocol'
p136
S'arduino'
p137
ssS'build'
p138
(dp139
S'core'
p140
S'arduino'
p141
sS'mcu'
p142
S'atmega328p'
p143
sS'f_cpu'
p144
S'16000000L'
p145
sS'variant'
p146
S'standard'
p147
ssS'name'
p148
S'Arduino Duemilanove w/ ATmega328'
p149
sg109
S'/usr/share/arduino/hardware/arduino'
p150
saa(lp151
S'diecimila'
p152
a(dp153
S'bootloader'
p154
(dp155
S'extended_fuses'
p156
S'0x00'
p157
sS'high_fuses'
p158
S'0xdd'
p159
sS'low_fuses'
p160
S'0xff'
p161
sS'lock_bits'
p162
S'0x0F'
p163
sS'file'
p164
S'ATmegaBOOT_168_diecimila.hex'
p165
sS'path'
p166
S'atmega'
p167
sS'unlock_bits'
p168
S'0x3F'
p169
ssS'upload'
p170
(dp171
S'speed'
p172
S'19200'
p173
sS'maximum_size'
p174
S'14336'
p175
sS'protocol'
p176
S'arduino'
p177
ssS'build'
p178
(dp179
S'core'
p180
S'arduino'
p181
sS'mcu'
p182
S'atmega168'
p183
sS'f_cpu'
p184
S'16000000L'
p185
sS'variant'
p186
S'standard'
p187
ssS'name'
p188
S'Arduino Diecimila or Duemilanove w/ ATmega168'
p189
sg109
S'/usr/share/arduino/hardware/arduino'
p190
saa(lp191
S'nano328'
p192
a(dp193
S'bootloader'
p194
(dp195
S'extended_fuses'
p196
S'0x05'
p197
sS'high_fuses'
p198
S'0xDA'
p199
sS'low_fuses'
p200
S'0xFF'
p201
sS'lock_bits'
p202
S'0x0F'
p203
sS'file'
p204
S'ATmegaBOOT_168_atmega328.hex'
p205
sS'path'
p206
S'atmega'
p207
sS'unlock_bits'
p208
S'0x3F'
p209
ssS'upload'
p210
(dp211
S'speed'
p212
S'57600'
p213
sS'maximum_size'
p214
S'30720'
p215
sS'protocol'
p216
S'arduino'
p217
ssS'build'
p218
(dp219
S'core'
p220
S'arduino'
p221
sS'mcu'
p222
S'atmega328p'
p223
sS'f_cpu'
p224
S'16000000L'
p225
sS'variant'
p226
S'eightanaloginputs'
p227
ssS'name'
p228
S'Arduino Nano w/ ATmega328'
p229
sg109
S'/usr/share/arduino/hardware/arduino'
p230
saa(lp231
S'nano'
p232
a(dp233
S'bootloader'
p234
(dp235
S'extended_fuses'
p236
S'0x00'
p237
sS'high_fuses'
p238
S'0xdd'
p239
sS'low_fuses'
p240
S'0xff'
p241
sS'lock_bits'
p242
S'0x0F'
p243
sS'file'
p244
S'ATmegaBOOT_168_diecimila.hex'
p245
sS'path'
p246
S'atmega'
p247
sS'unlock_bits'
p248
S'0x3F'
p249
ssS'upload'
p250
(dp251
S'speed'
p252
S'19200'
p253
sS'maximum_size'
p254
S'14336'
p255
sS'protocol'
p256
S'arduino'
p257
ssS'build'
p258
(dp259
S'core'
p260
S'arduino'
p261
sS'mcu'
p262
S'atmega168'
p263
sS'f_cpu'
p264
S'16000000L'
p265
sS'variant'
p266
S'eightanaloginputs'
p267
ssS'name'
p268
S'Arduino Nano w/ ATmega168'
p269
sg109
S'/usr/share/arduino/hardware/arduino'
p270
saa(lp271
S'mega2560'
p272
a(dp273
S'bootloader'
p274
(dp275
S'extended_fuses'
p276
S'0xFD'
p277
sS'high_fuses'
p278
S'0xD8'
p279
sS'low_fuses'
p280
S'0xFF'
p281
sS'lock_bits'
p282
S'0x0F'
p283
sS'file'
p284
S'stk500boot_v2_mega2560.hex'
p285
sS'path'
p286
S'stk500v2'
p287
sS'unlock_bits'
p288
S'0x3F'
p289
ssS'upload'
p290
(dp291
S'speed'
p292
S'115200'
p293
sS'maximum_size'
p294
S'258048'
p295
sS'protocol'
p296
S'wiring'
p297
ssS'build'
p298
(dp299
S'core'
p300
S'arduino'
p301
sS'mcu'
p302
S'atmega2560'
p303
sS'f_cpu'
p304
S'16000000L'
p305
sS'variant'
p306
S'mega'
p307
ssS'name'
p308
S'Arduino Mega 2560 or Mega ADK'
p309
sg109
S'/usr/share/arduino/hardware/arduino'
p310
saa(lp311
S'mega'
p312
a(dp313
S'bootloader'
p314
(dp315
S'extended_fuses'
p316
S'0xF5'
p317
sS'high_fuses'
p318
S'0xDA'
p319
sS'low_fuses'
p320
S'0xFF'
p321
sS'lock_bits'
p322
S'0x0F'
p323
sS'file'
p324
S'ATmegaBOOT_168_atmega1280.hex'
p325
sS'path'
p326
S'atmega'
p327
sS'unlock_bits'
p328
S'0x3F'
p329
ssS'upload'
p330
(dp331
S'speed'
p332
S'57600'
p333
sS'maximum_size'
p334
S'126976'
p335
sS'protocol'
p336
S'arduino'
p337
ssS'build'
p338
(dp339
S'core'
p340
S'arduino'
p341
sS'mcu'
p342
S'atmega1280'
p343
sS'f_cpu'
p344
S'16000000L'
p345
sS'variant'
p346
S'mega'
p347
ssS'name'
p348
S'Arduino Mega (ATmega1280)'
p349
sg109
S'/usr/share/arduino/hardware/arduino'
p350
saa(lp351
S'leonardo'
p352
a(dp353
S'bootloader'
p354
(dp355
S'extended_fuses'
p356
S'0xcb'
p357
sS'high_fuses'
p358
S'0xd8'
p359
sS'low_fuses'
p360
S'0xff'
p361
sS'lock_bits'
p362
S'0x2F'
p363
sS'file'
p364
S'Caterina-Leonardo.hex'
p365
sS'path'
p366
S'caterina'
p367
sS'unlock_bits'
p368
S'0x3F'
p369
ssS'upload'
p370
(dp371
S'speed'
p372
S'57600'
p373
sS'maximum_size'
p374
S'28672'
p375
sS'protocol'
p376
S'avr109'
p377
sS'disable_flushing'
p378
S'true'
p379
ssS'build'
p380
(dp381
S'core'
p382
S'arduino'
p383
sS'f_cpu'
p384
S'16000000L'
p385
sS'vid'
p386
S'0x2341'
p387
sS'pid'
p388
S'0x8036'
p389
sS'variant'
p390
S'leonardo'
p391
sS'mcu'
p392
S'atmega32u4'
p393
ssS'name'
p394
S'Arduino Leonardo'
p395
sg109
S'/usr/share/arduino/hardware/arduino'
p396
saa(lp397
S'esplora'
p398
a(dp399
S'bootloader'
p400
(dp401
S'extended_fuses'
p402
S'0xcb'
p403
sS'high_fuses'
p404
S'0xd8'
p405
sS'low_fuses'
p406
S'0xff'
p407
sS'lock_bits'
p408
S'0x2F'
p409
sS'file'
p410
S'Caterina-Esplora.hex'
p411
sS'path'
p412
S'caterina'
p413
sS'unlock_bits'
p414
S'0x3F'
p415
ssS'upload'
p416
(dp417
S'speed'
p418
S'57600'
p419
sS'maximum_size'
p420
S'28672'
p421
sS'protocol'
p422
S'avr109'
p423
sS'disable_flushing'
p424
S'true'
p425
ssS'build'
p426
(dp427
S'core'
p428
S'arduino'
p429
sS'f_cpu'
p430
S'16000000L'
p431
sS'vid'
p432
S'0x2341'
p433
sS'pid'
p434
S'0x803C'
p435
sS'variant'
p436
S'leonardo'
p437
sS'mcu'
p438
S'atmega32u4'
p439
ssS'name'
p440
S'Arduino Esplora'
p441
sg109
S'/usr/share/arduino/hardware/arduino'
p442
saa(lp443
S'micro'
p444
a(dp445
S'bootloader'
p446
(dp447
S'extended_fuses'
p448
S'0xcb'
p449
sS'high_fuses'
p450
S'0xd8'
p451
sS'low_fuses'
p452
S'0xff'
p453
sS'lock_bits'
p454
S'0x2F'
p455
sS'file'
p456
S'Caterina-Micro.hex'
p457
sS'path'
p458
S'caterina'
p459
sS'unlock_bits'
p460
S'0x3F'
p461
ssS'upload'
p462
(dp463
S'speed'
p464
S'57600'
p465
sS'maximum_size'
p466
S'28672'
p467
sS'protocol'
p468
S'avr109'
p469
sS'disable_flushing'
p470
S'true'
p471
ssS'build'
p472
(dp473
S'core'
p474
S'arduino'
p475
sS'f_cpu'
p476
S'16000000L'
p477
sS'vid'
p478
S'0x2341'
p479
sS'pid'
p480
S'0x8037'
p481
sS'variant'
p482
S'micro'
p483
sS'mcu'
p484
S'atmega32u4'
p485
ssS'name'
p486
S'Arduino Micro'
p487
sg109
S'/usr/share/arduino/hardware/arduino'
p488
saa(lp489
S'mini328'
p490
a(dp491
S'bootloader'
p492
(dp493
S'extended_fuses'
p494
S'0x05'
p495
sS'high_fuses'
p496
S'0xd8'
p497
sS'low_fuses'
p498
S'0xff'
p499
sS'lock_bits'
p500
S'0x0F'
p501
sS'file'
p502
S'optiboot_atmega328-Mini.hex'
p503
sS'path'
p504
S'optiboot'
p505
sS'unlock_bits'
p506
S'0x3F'
p507
ssS'upload'
p508
(dp509
S'speed'
p510
S'115200'
p511
sS'maximum_size'
p512
S'28672'
p513
sS'protocol'
p514
S'arduino'
p515
ssS'build'
p516
(dp517
S'core'
p518
S'arduino'
p519
sS'mcu'
p520
S'atmega328p'
p521
sS'f_cpu'
p522
S'16000000L'
p523
sS'variant'
p524
S'eightanaloginputs'
p525
ssS'name'
p526
S'Arduino Mini w/ ATmega328'
p527
sg109
S'/usr/share/arduino/hardware/arduino'
p528
saa(lp529
S'mini'
p530
a(dp531
S'bootloader'
p532
(dp533
S'extended_fuses'
p534
S'0x00'
p535
sS'high_fuses'
p536
S'0xdd'
p537
sS'low_fuses'
p538
S'0xff'
p539
sS'lock_bits'
p540
S'0x0F'
p541
sS'file'
p542
S'ATmegaBOOT_168_ng.hex'
p543
sS'path'
p544
S'atmega'
p545
sS'unlock_bits'
p546
S'0x3F'
p547
ssS'upload'
p548
(dp549
S'speed'
p550
S'19200'
p551
sS'maximum_size'
p552
S'14336'
p553
sS'protocol'
p554
S'arduino'
p555
ssS'build'
p556
(dp557
S'core'
p558
S'arduino'
p559
sS'mcu'
p560
S'atmega168'
p561
sS'f_cpu'
p562
S'16000000L'
p563
sS'variant'
p564
S'eightanaloginputs'
p565
ssS'name'
p566
S'Arduino Mini w/ ATmega168'
p567
sg109
S'/usr/share/arduino/hardware/arduino'
p568
saa(lp569
S'ethernet'
p570
a(dp571
S'bootloader'
p572
(dp573
S'extended_fuses'
p574
S'0x05'
p575
sS'high_fuses'
p576
S'0xde'
p577
sS'low_fuses'
p578
S'0xff'
p579
sS'lock_bits'
p580
S'0x0F'
p581
sS'file'
p582
S'optiboot_atmega328.hex'
p583
sS'path'
p584
S'optiboot'
p585
sS'unlock_bits'
p586
S'0x3F'
p587
ssS'upload'
p588
(dp589
S'speed'
p590
S'115200'
p591
sS'maximum_size'
p592
S'32256'
p593
sS'protocol'
p594
S'arduino'
p595
ssS'build'
p596
(dp597
S'f_cpu'
p598
S'16000000L'
p599
sS'mcu'
p600
S'atmega328p'
p601
sS'variant'
p602
S'standard'
p603
sS'core'
p604
S'arduino'
p605
ssS'name'
p606
S'Arduino Ethernet'
p607
sg109
S'/usr/share/arduino/hardware/arduino'
p608
saa(lp609
S'fio'
p610
a(dp611
S'bootloader'
p612
(dp613
S'extended_fuses'
p614
S'0x05'
p615
sS'high_fuses'
p616
S'0xDA'
p617
sS'low_fuses'
p618
S'0xFF'
p619
sS'lock_bits'
p620
S'0x0F'
p621
sS'file'
p622
S'ATmegaBOOT_168_atmega328_pro_8MHz.hex'
p623
sS'path'
p624
S'arduino:atmega'
p625
sS'unlock_bits'
p626
S'0x3F'
p627
ssS'upload'
p628
(dp629
S'speed'
p630
S'57600'
p631
sS'maximum_size'
p632
S'30720'
p633
sS'protocol'
p634
S'arduino'
p635
ssS'build'
p636
(dp637
S'core'
p638
S'arduino'
p639
sS'mcu'
p640
S'atmega328p'
p641
sS'f_cpu'
p642
S'8000000L'
p643
sS'variant'
p644
S'eightanaloginputs'
p645
ssS'name'
p646
S'Arduino Fio'
p647
sg109
S'/usr/share/arduino/hardware/arduino'
p648
saa(lp649
S'bt328'
p650
a(dp651
S'bootloader'
p652
(dp653
S'extended_fuses'
p654
S'0x05'
p655
sS'high_fuses'
p656
S'0xd8'
p657
sS'low_fuses'
p658
S'0xff'
p659
sS'lock_bits'
p660
S'0x0F'
p661
sS'file'
p662
S'ATmegaBOOT_168_atmega328_bt.hex'
p663
sS'path'
p664
S'bt'
p665
sS'unlock_bits'
p666
S'0x3F'
p667
ssS'upload'
p668
(dp669
S'speed'
p670
S'19200'
p671
sS'maximum_size'
p672
S'28672'
p673
sS'protocol'
p674
S'arduino'
p675
sS'disable_flushing'
p676
S'true'
p677
ssS'build'
p678
(dp679
S'core'
p680
S'arduino'
p681
sS'mcu'
p682
S'atmega328p'
p683
sS'f_cpu'
p684
S'16000000L'
p685
sS'variant'
p686
S'eightanaloginputs'
p687
ssS'name'
p688
S'Arduino BT w/ ATmega328'
p689
sg109
S'/usr/share/arduino/hardware/arduino'
p690
saa(lp691
S'bt'
p692
a(dp693
S'bootloader'
p694
(dp695
S'extended_fuses'
p696
S'0x00'
p697
sS'high_fuses'
p698
S'0xdd'
p699
sS'low_fuses'
p700
S'0xff'
p701
sS'lock_bits'
p702
S'0x0F'
p703
sS'file'
p704
S'ATmegaBOOT_168.hex'
p705
sS'path'
p706
S'bt'
p707
sS'unlock_bits'
p708
S'0x3F'
p709
ssS'upload'
p710
(dp711
S'speed'
p712
S'19200'
p713
sS'maximum_size'
p714
S'14336'
p715
sS'protocol'
p716
S'arduino'
p717
sS'disable_flushing'
p718
S'true'
p719
ssS'build'
p720
(dp721
S'core'
p722
S'arduino'
p723
sS'mcu'
p724
S'atmega168'
p725
sS'f_cpu'
p726
S'16000000L'
p727
sS'variant'
p728
S'eightanaloginputs'
p729
ssS'name'
p730
S'Arduino BT w/ ATmega168'
p731
sg109
S'/usr/share/arduino/hardware/arduino'
p732
saa(lp733
S'LilyPadUSB'
p734
a(dp735
S'bootloader'
p736
(dp737
S'extended_fuses'
p738
S'0xce'
p739
sS'high_fuses'
p740
S'0xd8'
p741
sS'low_fuses'
p742
S'0xff'
p743
sS'lock_bits'
p744
S'0x2F'
p745
sS'file'
p746
S'Caterina-LilyPadUSB.hex'
p747
sS'path'
p748
S'caterina-LilyPadUSB'
p749
sS'unlock_bits'
p750
S'0x3F'
p751
ssS'upload'
p752
(dp753
S'speed'
p754
S'57600'
p755
sS'maximum_size'
p756
S'28672'
p757
sS'protocol'
p758
S'avr109'
p759
sS'disable_flushing'
p760
S'true'
p761
ssS'build'
p762
(dp763
S'core'
p764
S'arduino'
p765
sS'f_cpu'
p766
S'8000000L'
p767
sS'vid'
p768
S'0x1B4F'
p769
sS'pid'
p770
S'0x9208'
p771
sS'variant'
p772
S'leonardo'
p773
sS'mcu'
p774
S'atmega32u4'
p775
ssS'name'
p776
S'LilyPad Arduino USB'
p777
sg109
S'/usr/share/arduino/hardware/arduino'
p778
saa(lp779
S'lilypad328'
p780
a(dp781
S'bootloader'
p782
(dp783
S'extended_fuses'
p784
S'0x05'
p785
sS'high_fuses'
p786
S'0xDA'
p787
sS'low_fuses'
p788
S'0xFF'
p789
sS'lock_bits'
p790
S'0x0F'
p791
sS'file'
p792
S'ATmegaBOOT_168_atmega328_pro_8MHz.hex'
p793
sS'path'
p794
S'atmega'
p795
sS'unlock_bits'
p796
S'0x3F'
p797
ssS'upload'
p798
(dp799
S'speed'
p800
S'57600'
p801
sS'maximum_size'
p802
S'30720'
p803
sS'protocol'
p804
S'arduino'
p805
ssS'build'
p806
(dp807
S'core'
p808
S'arduino'
p809
sS'mcu'
p810
S'atmega328p'
p811
sS'f_cpu'
p812
S'8000000L'
p813
sS'variant'
p814
S'standard'
p815
ssS'name'
p816
S'LilyPad Arduino w/ ATmega328'
p817
sg109
S'/usr/share/arduino/hardware/arduino'
p818
saa(lp819
S'lilypad'
p820
a(dp821
S'bootloader'
p822
(dp823
S'extended_fuses'
p824
S'0x00'
p825
sS'high_fuses'
p826
S'0xdd'
p827
sS'low_fuses'
p828
S'0xe2'
p829
sS'lock_bits'
p830
S'0x0F'
p831
sS'file'
p832
S'LilyPadBOOT_168.hex'
p833
sS'path'
p834
S'lilypad'
p835
sS'unlock_bits'
p836
S'0x3F'
p837
ssS'upload'
p838
(dp839
S'speed'
p840
S'19200'
p841
sS'maximum_size'
p842
S'14336'
p843
sS'protocol'
p844
S'arduino'
p845
ssS'build'
p846
(dp847
S'core'
p848
S'arduino'
p849
sS'mcu'
p850
S'atmega168'
p851
sS'f_cpu'
p852
S'8000000L'
p853
sS'variant'
p854
S'standard'
p855
ssS'name'
p856
S'LilyPad Arduino w/ ATmega168'
p857
sg109
S'/usr/share/arduino/hardware/arduino'
p858
saa(lp859
S'pro5v328'
p860
a(dp861
S'bootloader'
p862
(dp863
S'extended_fuses'
p864
S'0x05'
p865
sS'high_fuses'
p866
S'0xDA'
p867
sS'low_fuses'
p868
S'0xFF'
p869
sS'lock_bits'
p870
S'0x0F'
p871
sS'file'
p872
S'ATmegaBOOT_168_atmega328.hex'
p873
sS'path'
p874
S'atmega'
p875
sS'unlock_bits'
p876
S'0x3F'
p877
ssS'upload'
p878
(dp879
S'speed'
p880
S'57600'
p881
sS'maximum_size'
p882
S'30720'
p883
sS'protocol'
p884
S'arduino'
p885
ssS'build'
p886
(dp887
S'core'
p888
S'arduino'
p889
sS'mcu'
p890
S'atmega328p'
p891
sS'f_cpu'
p892
S'16000000L'
p893
sS'variant'
p894
S'standard'
p895
ssS'name'
p896
S'Arduino Pro or Pro Mini (5V, 16 MHz) w/ ATmega328'
p897
sg109
S'/usr/share/arduino/hardware/arduino'
p898
saa(lp899
S'pro5v'
p900
a(dp901
S'bootloader'
p902
(dp903
S'extended_fuses'
p904
S'0x00'
p905
sS'high_fuses'
p906
S'0xdd'
p907
sS'low_fuses'
p908
S'0xff'
p909
sS'lock_bits'
p910
S'0x0F'
p911
sS'file'
p912
S'ATmegaBOOT_168_diecimila.hex'
p913
sS'path'
p914
S'atmega'
p915
sS'unlock_bits'
p916
S'0x3F'
p917
ssS'upload'
p918
(dp919
S'speed'
p920
S'19200'
p921
sS'maximum_size'
p922
S'14336'
p923
sS'protocol'
p924
S'arduino'
p925
ssS'build'
p926
(dp927
S'core'
p928
S'arduino'
p929
sS'mcu'
p930
S'atmega168'
p931
sS'f_cpu'
p932
S'16000000L'
p933
sS'variant'
p934
S'standard'
p935
ssS'name'
p936
S'Arduino Pro or Pro Mini (5V, 16 MHz) w/ ATmega168'
p937
sg109
S'/usr/share/arduino/hardware/arduino'
p938
saa(lp939
S'pro328'
p940
a(dp941
S'bootloader'
p942
(dp943
S'extended_fuses'
p944
S'0x05'
p945
sS'high_fuses'
p946
S'0xDA'
p947
sS'low_fuses'
p948
S'0xFF'
p949
sS'lock_bits'
p950
S'0x0F'
p951
sS'file'
p952
S'ATmegaBOOT_168_atmega328_pro_8MHz.hex'
p953
sS'path'
p954
S'atmega'
p955
sS'unlock_bits'
p956
S'0x3F'
p957
ssS'upload'
p958
(dp959
S'speed'
p960
S'57600'
p961
sS'maximum_size'
p962
S'30720'
p963
sS'protocol'
p964
S'arduino'
p965
ssS'build'
p966
(dp967
S'core'
p968
S'arduino'
p969
sS'mcu'
p970
S'atmega328p'
p971
sS'f_cpu'
p972
S'8000000L'
p973
sS'variant'
p974
S'standard'
p975
ssS'name'
p976
S'Arduino Pro or Pro Mini (3.3V, 8 MHz) w/ ATmega328'
p977
sg109
S'/usr/share/arduino/hardware/arduino'
p978
saa(lp979
S'pro'
p980
a(dp981
S'bootloader'
p982
(dp983
S'extended_fuses'
p984
S'0x00'
p985
sS'high_fuses'
p986
S'0xdd'
p987
sS'low_fuses'
p988
S'0xc6'
p989
sS'lock_bits'
p990
S'0x0F'
p991
sS'file'
p992
S'ATmegaBOOT_168_pro_8MHz.hex'
p993
sS'path'
p994
S'atmega'
p995
sS'unlock_bits'
p996
S'0x3F'
p997
ssS'upload'
p998
(dp999
S'speed'
p1000
S'19200'
p1001
sS'maximum_size'
p1002
S'14336'
p1003
sS'protocol'
p1004
S'arduino'
p1005
ssS'build'
p1006
(dp1007
S'core'
p1008
S'arduino'
p1009
sS'mcu'
p1010
S'atmega168'
p1011
sS'f_cpu'
p1012
S'8000000L'
p1013
sS'variant'
p1014
S'standard'
p1015
ssS'name'
p1016
S'Arduino Pro or Pro Mini (3.3V, 8 MHz) w/ ATmega168'
p1017
sg109
S'/usr/share/arduino/hardware/arduino'
p1018
saa(lp1019
S'atmega168'
p1020
a(dp1021
S'bootloader'
p1022
(dp1023
S'extended_fuses'
p1024
S'0x00'
p1025
sS'high_fuses'
p1026
S'0xdd'
p1027
sS'low_fuses'
p1028
S'0xff'
p1029
sS'lock_bits'
p1030
S'0x0F'
p1031
sS'file'
p1032
S'ATmegaBOOT_168_ng.hex'
p1033
sS'path'
p1034
S'atmega'
p1035
sS'unlock_bits'
p1036
S'0x3F'
p1037
ssS'upload'
p1038
(dp1039
S'speed'
p1040
S'19200'
p1041
sS'maximum_size'
p1042
S'14336'
p1043
sS'protocol'
p1044
S'arduino'
p1045
ssS'build'
p1046
(dp1047
S'core'
p1048
S'arduino'
p1049
sS'mcu'
p1050
S'atmega168'
p1051
sS'f_cpu'
p1052
S'16000000L'
p1053
sS'variant'
p1054
S'standard'
p1055
ssS'name'
p1056
S'Arduino NG or older w/ ATmega168'
p1057
sg109
S'/usr/share/arduino/hardware/arduino'
p1058
saa(lp1059
S'atmega8'
p1060
a(dp1061
S'bootloader'
p1062
(dp1063
S'high_fuses'
p1064
S'0xca'
p1065
sS'low_fuses'
p1066
S'0xdf'
p1067
sS'lock_bits'
p1068
S'0x0F'
p1069
sS'file'
p1070
S'ATmegaBOOT-prod-firmware-2009-11-07.hex'
p1071
sS'path'
p1072
S'atmega8'
p1073
sS'unlock_bits'
p1074
S'0x3F'
p1075
ssS'upload'
p1076
(dp1077
S'speed'
p1078
S'19200'
p1079
sS'maximum_size'
p1080
S'7168'
p1081
sS'protocol'
p1082
S'arduino'
p1083
ssS'build'
p1084
(dp1085
S'core'
p1086
S'arduino'
p1087
sS'mcu'
p1088
S'atmega8'
p1089
sS'f_cpu'
p1090
S'16000000L'
p1091
sS'variant'
p1092
S'standard'
p1093
ssS'name'
p1094
S'Arduino NG or older w/ ATmega8'
p1095
sg109
S'/usr/share/arduino/hardware/arduino'
p1096
saa(lp1097
S'robotControl'
p1098
a(dp1099
S'bootloader'
p1100
(dp1101
S'extended_fuses'
p1102
S'0xcb'
p1103
sS'high_fuses'
p1104
S'0xd8'
p1105
sS'low_fuses'
p1106
S'0xff'
p1107
sS'lock_bits'
p1108
S'0x2F'
p1109
sS'file'
p1110
S'Caterina-Robot-Control.hex'
p1111
sS'path'
p1112
S'caterina-Arduino_Robot'
p1113
sS'unlock_bits'
p1114
S'0x3F'
p1115
ssS'upload'
p1116
(dp1117
S'speed'
p1118
S'57600'
p1119
sS'maximum_size'
p1120
S'28672'
p1121
sS'protocol'
p1122
S'avr109'
p1123
sS'disable_flushing'
p1124
S'true'
p1125
ssS'build'
p1126
(dp1127
S'core'
p1128
S'robot'
p1129
sS'f_cpu'
p1130
S'16000000L'
p1131
sS'vid'
p1132
S'0x2341'
p1133
sS'pid'
p1134
S'0x8038'
p1135
sS'variant'
p1136
S'robot_control'
p1137
sS'mcu'
p1138
S'atmega32u4'
p1139
ssS'name'
p1140
S'Arduino Robot Control'
p1141
sg109
S'/usr/share/arduino/hardware/arduino'
p1142
saa(lp1143
S'robotMotor'
p1144
a(dp1145
S'bootloader'
p1146
(dp1147
S'extended_fuses'
p1148
S'0xcb'
p1149
sS'high_fuses'
p1150
S'0xd8'
p1151
sS'low_fuses'
p1152
S'0xff'
p1153
sS'lock_bits'
p1154
S'0x2F'
p1155
sS'file'
p1156
S'Caterina-Robot-Motor.hex'
p1157
sS'path'
p1158
S'caterina-Arduino_Robot'
p1159
sS'unlock_bits'
p1160
S'0x3F'
p1161
ssS'upload'
p1162
(dp1163
S'speed'
p1164
S'57600'
p1165
sS'maximum_size'
p1166
S'28672'
p1167
sS'protocol'
p1168
S'avr109'
p1169
sS'disable_flushing'
p1170
S'true'
p1171
ssS'build'
p1172
(dp1173
S'core'
p1174
S'robot'
p1175
sS'f_cpu'
p1176
S'16000000L'
p1177
sS'vid'
p1178
S'0x2341'
p1179
sS'pid'
p1180
S'0x8039'
p1181
sS'variant'
p1182
S'robot_motor'
p1183
sS'mcu'
p1184
S'atmega32u4'
p1185
ssS'name'
p1186
S'Arduino Robot Motor'
p1187
sg109
S'/usr/share/arduino/hardware/arduino'
p1188
saatp1189
Rp1190
(dp1191
S'default'
p1192
S'uno'
p1193
sbtp1194
a(S'used_libs'
p1195
(lp1196
S'lib/ShiftIn'
p1197
aS'lib/ShiftOut'
p1198
aS'/usr/share/arduino/hardware/arduino/cores/arduino'
p1199
atp1200
a(S'make'
p1201
S'/usr/share/arduino/hardware/tools/avr/bin/make'
p1202
tp1203
a(S'arduino_libraries_dir'
p1204
S'/usr/share/arduino/libraries'
p1205
tp1206
a(S'cc'
p1207
S'/usr/share/arduino/hardware/tools/avr/bin/avr-gcc'
p1208
tp1209
a(S'cflags'
p1210
g2
(g3
g4
(lp1211
tp1212
Rp1213
tp1214
a(S'cxxflags'
p1215
g2
(g3
g4
(lp1216
S'-fno-exceptions'
p1217
atp1218
Rp1219
tp1220
a(S'arduino_variants_dir'
p1221
S'/usr/share/arduino/hardware/arduino/variants'
p1222
tp1223
a(S'stty'
p1224
S'/bin/stty'
p1225
tp1226
a(S'version.txt'
p1227
S'/usr/share/arduino/lib/version.txt'
p1228
tp1229
a(S'arduino_core_dir'
p1230
g1199
tp1231
a(S'boards.txt'
p1232
(lp1233
S'/usr/share/arduino/hardware/arduino/boards.txt'
p1234
atp1235
a(S'avrdude.conf'
p1236
S'/usr/share/arduino/hardware/tools/avrdude.conf'
p1237
tp1238
a(S'deps'
p1239
g2
(g3
g4
(lp1240
S'.build/uno/src/dependencies.d'
p1241
aS'.build/uno/arduino/dependencies.d'
p1242
aS'.build/uno/ShiftIn/dependencies.d'
p1243
aS'.build/uno/ShiftOut/dependencies.d'
p1244
atp1245
Rp1246
tp1247
a.