(lp0
(S'cppflags'
p1
ccopy_reg
_reconstructor
p2
(cino.utils
SpaceList
p3
c__builtin__
list
p4
(lp5
S'-mmcu=atmega328p'
p6
aS'-DF_CPU=16000000L'
p7
aS'-DARDUINO=105'
p8
aS'-I/usr/share/arduino/hardware/arduino/cores/arduino'
p9
aS'-ffunction-sections'
p10
aS'-fdata-sections'
p11
aS'-g'
p12
aS'-Os'
p13
aS'-w'
p14
aS'-I/usr/share/arduino/hardware/arduino/variants/standard'
p15
aS'-Ilib/ShiftIn'
p16
aS'-Ilib/ShiftOut'
p17
aS'-I/usr/share/arduino/hardware/arduino/cores/arduino'
p18
aS'-I/usr/share/arduino/hardware/arduino/cores/arduino/avr-libc'
p19
aS'-I/usr/share/arduino/hardware/arduino/cores/arduino/Wire'
p20
aS'-I/usr/share/arduino/hardware/arduino/cores/arduino/Wire/src'
p21
aS'-I/usr/share/arduino/hardware/arduino/cores/arduino/Wire/src/utility'
p22
aS'-I/usr/share/arduino/hardware/arduino/cores/arduino/Wire/src/utility'
p23
atp24
Rp25
tp26
a(S'cxx'
p27
S'/usr/share/arduino/hardware/tools/avr/bin/avr-g++'
p28
tp29
a(S'arduino_libraries_dir'
p30
S'/usr/share/arduino/libraries'
p31
tp32
a(S'avrdude'
p33
S'/usr/share/arduino/hardware/tools/avrdude'
p34
tp35
a(S'ar'
p36
S'/usr/share/arduino/hardware/tools/avr/bin/avr-ar'
p37
tp38
a(S'names'
p39
(dp40
S'cpp'
p41
S'%s.cpp'
p42
sS'obj'
p43
S'%s.o'
p44
sS'lib'
p45
S'lib%s.a'
p46
sS'deps'
p47
S'%s.d'
p48
stp49
a(S'ldflags'
p50
g2
(g3
g4
(lp51
g6
aS'-Wl,-Os'
p52
aS'-Wl,--gc-sections'
p53
atp54
Rp55
tp56
a(S'arduino_lib_version'
p57
g2
(cino.environment
Version
p58
c__builtin__
tuple
p59
(I1
I0
I5
tp60
tp61
Rp62
tp63
a(S'objcopy'
p64
S'/usr/share/arduino/hardware/tools/avr/bin/avr-objcopy'
p65
tp66
a(S'board_models'
p67
cino.environment
BoardModels
p68
((lp69
(lp70
S'uno'
p71
a(dp72
S'build'
p73
(dp74
S'core'
p75
S'arduino'
p76
sS'mcu'
p77
S'atmega328p'
p78
sS'f_cpu'
p79
S'16000000L'
p80
sS'variant'
p81
S'standard'
p82
ssS'bootloader'
p83
(dp84
S'extended_fuses'
p85
S'0x05'
p86
sS'high_fuses'
p87
S'0xde'
p88
sS'low_fuses'
p89
S'0xff'
p90
sS'lock_bits'
p91
S'0x0F'
p92
sS'file'
p93
S'optiboot_atmega328.hex'
p94
sS'path'
p95
S'optiboot'
p96
sS'unlock_bits'
p97
S'0x3F'
p98
ssS'upload'
p99
(dp100
S'speed'
p101
S'115200'
p102
sS'maximum_size'
p103
S'32256'
p104
sS'protocol'
p105
S'arduino'
p106
ssS'name'
p107
S'Arduino Uno'
p108
sS'_coredir'
p109
S'/usr/share/arduino/hardware/arduino'
p110
saa(lp111
S'atmega328'
p112
a(dp113
S'build'
p114
(dp115
S'core'
p116
S'arduino'
p117
sS'mcu'
p118
S'atmega328p'
p119
sS'f_cpu'
p120
S'16000000L'
p121
sS'variant'
p122
S'standard'
p123
ssS'bootloader'
p124
(dp125
S'extended_fuses'
p126
S'0x05'
p127
sS'high_fuses'
p128
S'0xDA'
p129
sS'low_fuses'
p130
S'0xFF'
p131
sS'lock_bits'
p132
S'0x0F'
p133
sS'file'
p134
S'ATmegaBOOT_168_atmega328.hex'
p135
sS'path'
p136
S'atmega'
p137
sS'unlock_bits'
p138
S'0x3F'
p139
ssS'upload'
p140
(dp141
S'speed'
p142
S'57600'
p143
sS'maximum_size'
p144
S'30720'
p145
sS'protocol'
p146
S'arduino'
p147
ssS'name'
p148
S'Arduino Duemilanove w/ ATmega328'
p149
sg109
S'/usr/share/arduino/hardware/arduino'
p150
saa(lp151
S'diecimila'
p152
a(dp153
S'build'
p154
(dp155
S'core'
p156
S'arduino'
p157
sS'mcu'
p158
S'atmega168'
p159
sS'f_cpu'
p160
S'16000000L'
p161
sS'variant'
p162
S'standard'
p163
ssS'bootloader'
p164
(dp165
S'extended_fuses'
p166
S'0x00'
p167
sS'high_fuses'
p168
S'0xdd'
p169
sS'low_fuses'
p170
S'0xff'
p171
sS'lock_bits'
p172
S'0x0F'
p173
sS'file'
p174
S'ATmegaBOOT_168_diecimila.hex'
p175
sS'path'
p176
S'atmega'
p177
sS'unlock_bits'
p178
S'0x3F'
p179
ssS'upload'
p180
(dp181
S'speed'
p182
S'19200'
p183
sS'maximum_size'
p184
S'14336'
p185
sS'protocol'
p186
S'arduino'
p187
ssS'name'
p188
S'Arduino Diecimila or Duemilanove w/ ATmega168'
p189
sg109
S'/usr/share/arduino/hardware/arduino'
p190
saa(lp191
S'nano328'
p192
a(dp193
S'build'
p194
(dp195
S'core'
p196
S'arduino'
p197
sS'mcu'
p198
S'atmega328p'
p199
sS'f_cpu'
p200
S'16000000L'
p201
sS'variant'
p202
S'eightanaloginputs'
p203
ssS'bootloader'
p204
(dp205
S'extended_fuses'
p206
S'0x05'
p207
sS'high_fuses'
p208
S'0xDA'
p209
sS'low_fuses'
p210
S'0xFF'
p211
sS'lock_bits'
p212
S'0x0F'
p213
sS'file'
p214
S'ATmegaBOOT_168_atmega328.hex'
p215
sS'path'
p216
S'atmega'
p217
sS'unlock_bits'
p218
S'0x3F'
p219
ssS'upload'
p220
(dp221
S'speed'
p222
S'57600'
p223
sS'maximum_size'
p224
S'30720'
p225
sS'protocol'
p226
S'arduino'
p227
ssS'name'
p228
S'Arduino Nano w/ ATmega328'
p229
sg109
S'/usr/share/arduino/hardware/arduino'
p230
saa(lp231
S'nano'
p232
a(dp233
S'build'
p234
(dp235
S'core'
p236
S'arduino'
p237
sS'mcu'
p238
S'atmega168'
p239
sS'f_cpu'
p240
S'16000000L'
p241
sS'variant'
p242
S'eightanaloginputs'
p243
ssS'bootloader'
p244
(dp245
S'extended_fuses'
p246
S'0x00'
p247
sS'high_fuses'
p248
S'0xdd'
p249
sS'low_fuses'
p250
S'0xff'
p251
sS'lock_bits'
p252
S'0x0F'
p253
sS'file'
p254
S'ATmegaBOOT_168_diecimila.hex'
p255
sS'path'
p256
S'atmega'
p257
sS'unlock_bits'
p258
S'0x3F'
p259
ssS'upload'
p260
(dp261
S'speed'
p262
S'19200'
p263
sS'maximum_size'
p264
S'14336'
p265
sS'protocol'
p266
S'arduino'
p267
ssS'name'
p268
S'Arduino Nano w/ ATmega168'
p269
sg109
S'/usr/share/arduino/hardware/arduino'
p270
saa(lp271
S'mega2560'
p272
a(dp273
S'build'
p274
(dp275
S'core'
p276
S'arduino'
p277
sS'mcu'
p278
S'atmega2560'
p279
sS'f_cpu'
p280
S'16000000L'
p281
sS'variant'
p282
S'mega'
p283
ssS'bootloader'
p284
(dp285
S'extended_fuses'
p286
S'0xFD'
p287
sS'high_fuses'
p288
S'0xD8'
p289
sS'low_fuses'
p290
S'0xFF'
p291
sS'lock_bits'
p292
S'0x0F'
p293
sS'file'
p294
S'stk500boot_v2_mega2560.hex'
p295
sS'path'
p296
S'stk500v2'
p297
sS'unlock_bits'
p298
S'0x3F'
p299
ssS'upload'
p300
(dp301
S'speed'
p302
S'115200'
p303
sS'maximum_size'
p304
S'258048'
p305
sS'protocol'
p306
S'wiring'
p307
ssS'name'
p308
S'Arduino Mega 2560 or Mega ADK'
p309
sg109
S'/usr/share/arduino/hardware/arduino'
p310
saa(lp311
S'mega'
p312
a(dp313
S'build'
p314
(dp315
S'core'
p316
S'arduino'
p317
sS'mcu'
p318
S'atmega1280'
p319
sS'f_cpu'
p320
S'16000000L'
p321
sS'variant'
p322
S'mega'
p323
ssS'bootloader'
p324
(dp325
S'extended_fuses'
p326
S'0xF5'
p327
sS'high_fuses'
p328
S'0xDA'
p329
sS'low_fuses'
p330
S'0xFF'
p331
sS'lock_bits'
p332
S'0x0F'
p333
sS'file'
p334
S'ATmegaBOOT_168_atmega1280.hex'
p335
sS'path'
p336
S'atmega'
p337
sS'unlock_bits'
p338
S'0x3F'
p339
ssS'upload'
p340
(dp341
S'speed'
p342
S'57600'
p343
sS'maximum_size'
p344
S'126976'
p345
sS'protocol'
p346
S'arduino'
p347
ssS'name'
p348
S'Arduino Mega (ATmega1280)'
p349
sg109
S'/usr/share/arduino/hardware/arduino'
p350
saa(lp351
S'leonardo'
p352
a(dp353
S'build'
p354
(dp355
S'core'
p356
S'arduino'
p357
sS'f_cpu'
p358
S'16000000L'
p359
sS'vid'
p360
S'0x2341'
p361
sS'pid'
p362
S'0x8036'
p363
sS'variant'
p364
S'leonardo'
p365
sS'mcu'
p366
S'atmega32u4'
p367
ssS'bootloader'
p368
(dp369
S'extended_fuses'
p370
S'0xcb'
p371
sS'high_fuses'
p372
S'0xd8'
p373
sS'low_fuses'
p374
S'0xff'
p375
sS'lock_bits'
p376
S'0x2F'
p377
sS'file'
p378
S'Caterina-Leonardo.hex'
p379
sS'path'
p380
S'caterina'
p381
sS'unlock_bits'
p382
S'0x3F'
p383
ssS'upload'
p384
(dp385
S'speed'
p386
S'57600'
p387
sS'maximum_size'
p388
S'28672'
p389
sS'protocol'
p390
S'avr109'
p391
sS'disable_flushing'
p392
S'true'
p393
ssS'name'
p394
S'Arduino Leonardo'
p395
sg109
S'/usr/share/arduino/hardware/arduino'
p396
saa(lp397
S'esplora'
p398
a(dp399
S'build'
p400
(dp401
S'core'
p402
S'arduino'
p403
sS'f_cpu'
p404
S'16000000L'
p405
sS'vid'
p406
S'0x2341'
p407
sS'pid'
p408
S'0x803C'
p409
sS'variant'
p410
S'leonardo'
p411
sS'mcu'
p412
S'atmega32u4'
p413
ssS'bootloader'
p414
(dp415
S'extended_fuses'
p416
S'0xcb'
p417
sS'high_fuses'
p418
S'0xd8'
p419
sS'low_fuses'
p420
S'0xff'
p421
sS'lock_bits'
p422
S'0x2F'
p423
sS'file'
p424
S'Caterina-Esplora.hex'
p425
sS'path'
p426
S'caterina'
p427
sS'unlock_bits'
p428
S'0x3F'
p429
ssS'upload'
p430
(dp431
S'speed'
p432
S'57600'
p433
sS'maximum_size'
p434
S'28672'
p435
sS'protocol'
p436
S'avr109'
p437
sS'disable_flushing'
p438
S'true'
p439
ssS'name'
p440
S'Arduino Esplora'
p441
sg109
S'/usr/share/arduino/hardware/arduino'
p442
saa(lp443
S'micro'
p444
a(dp445
S'build'
p446
(dp447
S'core'
p448
S'arduino'
p449
sS'f_cpu'
p450
S'16000000L'
p451
sS'vid'
p452
S'0x2341'
p453
sS'pid'
p454
S'0x8037'
p455
sS'variant'
p456
S'micro'
p457
sS'mcu'
p458
S'atmega32u4'
p459
ssS'bootloader'
p460
(dp461
S'extended_fuses'
p462
S'0xcb'
p463
sS'high_fuses'
p464
S'0xd8'
p465
sS'low_fuses'
p466
S'0xff'
p467
sS'lock_bits'
p468
S'0x2F'
p469
sS'file'
p470
S'Caterina-Micro.hex'
p471
sS'path'
p472
S'caterina'
p473
sS'unlock_bits'
p474
S'0x3F'
p475
ssS'upload'
p476
(dp477
S'speed'
p478
S'57600'
p479
sS'maximum_size'
p480
S'28672'
p481
sS'protocol'
p482
S'avr109'
p483
sS'disable_flushing'
p484
S'true'
p485
ssS'name'
p486
S'Arduino Micro'
p487
sg109
S'/usr/share/arduino/hardware/arduino'
p488
saa(lp489
S'mini328'
p490
a(dp491
S'build'
p492
(dp493
S'core'
p494
S'arduino'
p495
sS'mcu'
p496
S'atmega328p'
p497
sS'f_cpu'
p498
S'16000000L'
p499
sS'variant'
p500
S'eightanaloginputs'
p501
ssS'bootloader'
p502
(dp503
S'extended_fuses'
p504
S'0x05'
p505
sS'high_fuses'
p506
S'0xd8'
p507
sS'low_fuses'
p508
S'0xff'
p509
sS'lock_bits'
p510
S'0x0F'
p511
sS'file'
p512
S'optiboot_atmega328-Mini.hex'
p513
sS'path'
p514
S'optiboot'
p515
sS'unlock_bits'
p516
S'0x3F'
p517
ssS'upload'
p518
(dp519
S'speed'
p520
S'115200'
p521
sS'maximum_size'
p522
S'28672'
p523
sS'protocol'
p524
S'arduino'
p525
ssS'name'
p526
S'Arduino Mini w/ ATmega328'
p527
sg109
S'/usr/share/arduino/hardware/arduino'
p528
saa(lp529
S'mini'
p530
a(dp531
S'build'
p532
(dp533
S'core'
p534
S'arduino'
p535
sS'mcu'
p536
S'atmega168'
p537
sS'f_cpu'
p538
S'16000000L'
p539
sS'variant'
p540
S'eightanaloginputs'
p541
ssS'bootloader'
p542
(dp543
S'extended_fuses'
p544
S'0x00'
p545
sS'high_fuses'
p546
S'0xdd'
p547
sS'low_fuses'
p548
S'0xff'
p549
sS'lock_bits'
p550
S'0x0F'
p551
sS'file'
p552
S'ATmegaBOOT_168_ng.hex'
p553
sS'path'
p554
S'atmega'
p555
sS'unlock_bits'
p556
S'0x3F'
p557
ssS'upload'
p558
(dp559
S'speed'
p560
S'19200'
p561
sS'maximum_size'
p562
S'14336'
p563
sS'protocol'
p564
S'arduino'
p565
ssS'name'
p566
S'Arduino Mini w/ ATmega168'
p567
sg109
S'/usr/share/arduino/hardware/arduino'
p568
saa(lp569
S'ethernet'
p570
a(dp571
S'build'
p572
(dp573
S'f_cpu'
p574
S'16000000L'
p575
sS'mcu'
p576
S'atmega328p'
p577
sS'variant'
p578
S'standard'
p579
sS'core'
p580
S'arduino'
p581
ssS'bootloader'
p582
(dp583
S'extended_fuses'
p584
S'0x05'
p585
sS'high_fuses'
p586
S'0xde'
p587
sS'low_fuses'
p588
S'0xff'
p589
sS'lock_bits'
p590
S'0x0F'
p591
sS'file'
p592
S'optiboot_atmega328.hex'
p593
sS'path'
p594
S'optiboot'
p595
sS'unlock_bits'
p596
S'0x3F'
p597
ssS'upload'
p598
(dp599
S'speed'
p600
S'115200'
p601
sS'maximum_size'
p602
S'32256'
p603
sS'protocol'
p604
S'arduino'
p605
ssS'name'
p606
S'Arduino Ethernet'
p607
sg109
S'/usr/share/arduino/hardware/arduino'
p608
saa(lp609
S'fio'
p610
a(dp611
S'build'
p612
(dp613
S'core'
p614
S'arduino'
p615
sS'mcu'
p616
S'atmega328p'
p617
sS'f_cpu'
p618
S'8000000L'
p619
sS'variant'
p620
S'eightanaloginputs'
p621
ssS'bootloader'
p622
(dp623
S'extended_fuses'
p624
S'0x05'
p625
sS'high_fuses'
p626
S'0xDA'
p627
sS'low_fuses'
p628
S'0xFF'
p629
sS'lock_bits'
p630
S'0x0F'
p631
sS'file'
p632
S'ATmegaBOOT_168_atmega328_pro_8MHz.hex'
p633
sS'path'
p634
S'arduino:atmega'
p635
sS'unlock_bits'
p636
S'0x3F'
p637
ssS'upload'
p638
(dp639
S'speed'
p640
S'57600'
p641
sS'maximum_size'
p642
S'30720'
p643
sS'protocol'
p644
S'arduino'
p645
ssS'name'
p646
S'Arduino Fio'
p647
sg109
S'/usr/share/arduino/hardware/arduino'
p648
saa(lp649
S'bt328'
p650
a(dp651
S'build'
p652
(dp653
S'core'
p654
S'arduino'
p655
sS'mcu'
p656
S'atmega328p'
p657
sS'f_cpu'
p658
S'16000000L'
p659
sS'variant'
p660
S'eightanaloginputs'
p661
ssS'bootloader'
p662
(dp663
S'extended_fuses'
p664
S'0x05'
p665
sS'high_fuses'
p666
S'0xd8'
p667
sS'low_fuses'
p668
S'0xff'
p669
sS'lock_bits'
p670
S'0x0F'
p671
sS'file'
p672
S'ATmegaBOOT_168_atmega328_bt.hex'
p673
sS'path'
p674
S'bt'
p675
sS'unlock_bits'
p676
S'0x3F'
p677
ssS'upload'
p678
(dp679
S'speed'
p680
S'19200'
p681
sS'maximum_size'
p682
S'28672'
p683
sS'protocol'
p684
S'arduino'
p685
sS'disable_flushing'
p686
S'true'
p687
ssS'name'
p688
S'Arduino BT w/ ATmega328'
p689
sg109
S'/usr/share/arduino/hardware/arduino'
p690
saa(lp691
S'bt'
p692
a(dp693
S'build'
p694
(dp695
S'core'
p696
S'arduino'
p697
sS'mcu'
p698
S'atmega168'
p699
sS'f_cpu'
p700
S'16000000L'
p701
sS'variant'
p702
S'eightanaloginputs'
p703
ssS'bootloader'
p704
(dp705
S'extended_fuses'
p706
S'0x00'
p707
sS'high_fuses'
p708
S'0xdd'
p709
sS'low_fuses'
p710
S'0xff'
p711
sS'lock_bits'
p712
S'0x0F'
p713
sS'file'
p714
S'ATmegaBOOT_168.hex'
p715
sS'path'
p716
S'bt'
p717
sS'unlock_bits'
p718
S'0x3F'
p719
ssS'upload'
p720
(dp721
S'speed'
p722
S'19200'
p723
sS'maximum_size'
p724
S'14336'
p725
sS'protocol'
p726
S'arduino'
p727
sS'disable_flushing'
p728
S'true'
p729
ssS'name'
p730
S'Arduino BT w/ ATmega168'
p731
sg109
S'/usr/share/arduino/hardware/arduino'
p732
saa(lp733
S'LilyPadUSB'
p734
a(dp735
S'build'
p736
(dp737
S'core'
p738
S'arduino'
p739
sS'f_cpu'
p740
S'8000000L'
p741
sS'vid'
p742
S'0x1B4F'
p743
sS'pid'
p744
S'0x9208'
p745
sS'variant'
p746
S'leonardo'
p747
sS'mcu'
p748
S'atmega32u4'
p749
ssS'bootloader'
p750
(dp751
S'extended_fuses'
p752
S'0xce'
p753
sS'high_fuses'
p754
S'0xd8'
p755
sS'low_fuses'
p756
S'0xff'
p757
sS'lock_bits'
p758
S'0x2F'
p759
sS'file'
p760
S'Caterina-LilyPadUSB.hex'
p761
sS'path'
p762
S'caterina-LilyPadUSB'
p763
sS'unlock_bits'
p764
S'0x3F'
p765
ssS'upload'
p766
(dp767
S'speed'
p768
S'57600'
p769
sS'maximum_size'
p770
S'28672'
p771
sS'protocol'
p772
S'avr109'
p773
sS'disable_flushing'
p774
S'true'
p775
ssS'name'
p776
S'LilyPad Arduino USB'
p777
sg109
S'/usr/share/arduino/hardware/arduino'
p778
saa(lp779
S'lilypad328'
p780
a(dp781
S'build'
p782
(dp783
S'core'
p784
S'arduino'
p785
sS'mcu'
p786
S'atmega328p'
p787
sS'f_cpu'
p788
S'8000000L'
p789
sS'variant'
p790
S'standard'
p791
ssS'bootloader'
p792
(dp793
S'extended_fuses'
p794
S'0x05'
p795
sS'high_fuses'
p796
S'0xDA'
p797
sS'low_fuses'
p798
S'0xFF'
p799
sS'lock_bits'
p800
S'0x0F'
p801
sS'file'
p802
S'ATmegaBOOT_168_atmega328_pro_8MHz.hex'
p803
sS'path'
p804
S'atmega'
p805
sS'unlock_bits'
p806
S'0x3F'
p807
ssS'upload'
p808
(dp809
S'speed'
p810
S'57600'
p811
sS'maximum_size'
p812
S'30720'
p813
sS'protocol'
p814
S'arduino'
p815
ssS'name'
p816
S'LilyPad Arduino w/ ATmega328'
p817
sg109
S'/usr/share/arduino/hardware/arduino'
p818
saa(lp819
S'lilypad'
p820
a(dp821
S'build'
p822
(dp823
S'core'
p824
S'arduino'
p825
sS'mcu'
p826
S'atmega168'
p827
sS'f_cpu'
p828
S'8000000L'
p829
sS'variant'
p830
S'standard'
p831
ssS'bootloader'
p832
(dp833
S'extended_fuses'
p834
S'0x00'
p835
sS'high_fuses'
p836
S'0xdd'
p837
sS'low_fuses'
p838
S'0xe2'
p839
sS'lock_bits'
p840
S'0x0F'
p841
sS'file'
p842
S'LilyPadBOOT_168.hex'
p843
sS'path'
p844
S'lilypad'
p845
sS'unlock_bits'
p846
S'0x3F'
p847
ssS'upload'
p848
(dp849
S'speed'
p850
S'19200'
p851
sS'maximum_size'
p852
S'14336'
p853
sS'protocol'
p854
S'arduino'
p855
ssS'name'
p856
S'LilyPad Arduino w/ ATmega168'
p857
sg109
S'/usr/share/arduino/hardware/arduino'
p858
saa(lp859
S'pro5v328'
p860
a(dp861
S'build'
p862
(dp863
S'core'
p864
S'arduino'
p865
sS'mcu'
p866
S'atmega328p'
p867
sS'f_cpu'
p868
S'16000000L'
p869
sS'variant'
p870
S'standard'
p871
ssS'bootloader'
p872
(dp873
S'extended_fuses'
p874
S'0x05'
p875
sS'high_fuses'
p876
S'0xDA'
p877
sS'low_fuses'
p878
S'0xFF'
p879
sS'lock_bits'
p880
S'0x0F'
p881
sS'file'
p882
S'ATmegaBOOT_168_atmega328.hex'
p883
sS'path'
p884
S'atmega'
p885
sS'unlock_bits'
p886
S'0x3F'
p887
ssS'upload'
p888
(dp889
S'speed'
p890
S'57600'
p891
sS'maximum_size'
p892
S'30720'
p893
sS'protocol'
p894
S'arduino'
p895
ssS'name'
p896
S'Arduino Pro or Pro Mini (5V, 16 MHz) w/ ATmega328'
p897
sg109
S'/usr/share/arduino/hardware/arduino'
p898
saa(lp899
S'pro5v'
p900
a(dp901
S'build'
p902
(dp903
S'core'
p904
S'arduino'
p905
sS'mcu'
p906
S'atmega168'
p907
sS'f_cpu'
p908
S'16000000L'
p909
sS'variant'
p910
S'standard'
p911
ssS'bootloader'
p912
(dp913
S'extended_fuses'
p914
S'0x00'
p915
sS'high_fuses'
p916
S'0xdd'
p917
sS'low_fuses'
p918
S'0xff'
p919
sS'lock_bits'
p920
S'0x0F'
p921
sS'file'
p922
S'ATmegaBOOT_168_diecimila.hex'
p923
sS'path'
p924
S'atmega'
p925
sS'unlock_bits'
p926
S'0x3F'
p927
ssS'upload'
p928
(dp929
S'speed'
p930
S'19200'
p931
sS'maximum_size'
p932
S'14336'
p933
sS'protocol'
p934
S'arduino'
p935
ssS'name'
p936
S'Arduino Pro or Pro Mini (5V, 16 MHz) w/ ATmega168'
p937
sg109
S'/usr/share/arduino/hardware/arduino'
p938
saa(lp939
S'pro328'
p940
a(dp941
S'build'
p942
(dp943
S'core'
p944
S'arduino'
p945
sS'mcu'
p946
S'atmega328p'
p947
sS'f_cpu'
p948
S'8000000L'
p949
sS'variant'
p950
S'standard'
p951
ssS'bootloader'
p952
(dp953
S'extended_fuses'
p954
S'0x05'
p955
sS'high_fuses'
p956
S'0xDA'
p957
sS'low_fuses'
p958
S'0xFF'
p959
sS'lock_bits'
p960
S'0x0F'
p961
sS'file'
p962
S'ATmegaBOOT_168_atmega328_pro_8MHz.hex'
p963
sS'path'
p964
S'atmega'
p965
sS'unlock_bits'
p966
S'0x3F'
p967
ssS'upload'
p968
(dp969
S'speed'
p970
S'57600'
p971
sS'maximum_size'
p972
S'30720'
p973
sS'protocol'
p974
S'arduino'
p975
ssS'name'
p976
S'Arduino Pro or Pro Mini (3.3V, 8 MHz) w/ ATmega328'
p977
sg109
S'/usr/share/arduino/hardware/arduino'
p978
saa(lp979
S'pro'
p980
a(dp981
S'build'
p982
(dp983
S'core'
p984
S'arduino'
p985
sS'mcu'
p986
S'atmega168'
p987
sS'f_cpu'
p988
S'8000000L'
p989
sS'variant'
p990
S'standard'
p991
ssS'bootloader'
p992
(dp993
S'extended_fuses'
p994
S'0x00'
p995
sS'high_fuses'
p996
S'0xdd'
p997
sS'low_fuses'
p998
S'0xc6'
p999
sS'lock_bits'
p1000
S'0x0F'
p1001
sS'file'
p1002
S'ATmegaBOOT_168_pro_8MHz.hex'
p1003
sS'path'
p1004
S'atmega'
p1005
sS'unlock_bits'
p1006
S'0x3F'
p1007
ssS'upload'
p1008
(dp1009
S'speed'
p1010
S'19200'
p1011
sS'maximum_size'
p1012
S'14336'
p1013
sS'protocol'
p1014
S'arduino'
p1015
ssS'name'
p1016
S'Arduino Pro or Pro Mini (3.3V, 8 MHz) w/ ATmega168'
p1017
sg109
S'/usr/share/arduino/hardware/arduino'
p1018
saa(lp1019
S'atmega168'
p1020
a(dp1021
S'build'
p1022
(dp1023
S'core'
p1024
S'arduino'
p1025
sS'mcu'
p1026
S'atmega168'
p1027
sS'f_cpu'
p1028
S'16000000L'
p1029
sS'variant'
p1030
S'standard'
p1031
ssS'bootloader'
p1032
(dp1033
S'extended_fuses'
p1034
S'0x00'
p1035
sS'high_fuses'
p1036
S'0xdd'
p1037
sS'low_fuses'
p1038
S'0xff'
p1039
sS'lock_bits'
p1040
S'0x0F'
p1041
sS'file'
p1042
S'ATmegaBOOT_168_ng.hex'
p1043
sS'path'
p1044
S'atmega'
p1045
sS'unlock_bits'
p1046
S'0x3F'
p1047
ssS'upload'
p1048
(dp1049
S'speed'
p1050
S'19200'
p1051
sS'maximum_size'
p1052
S'14336'
p1053
sS'protocol'
p1054
S'arduino'
p1055
ssS'name'
p1056
S'Arduino NG or older w/ ATmega168'
p1057
sg109
S'/usr/share/arduino/hardware/arduino'
p1058
saa(lp1059
S'atmega8'
p1060
a(dp1061
S'build'
p1062
(dp1063
S'core'
p1064
S'arduino'
p1065
sS'mcu'
p1066
S'atmega8'
p1067
sS'f_cpu'
p1068
S'16000000L'
p1069
sS'variant'
p1070
S'standard'
p1071
ssS'bootloader'
p1072
(dp1073
S'high_fuses'
p1074
S'0xca'
p1075
sS'low_fuses'
p1076
S'0xdf'
p1077
sS'lock_bits'
p1078
S'0x0F'
p1079
sS'file'
p1080
S'ATmegaBOOT-prod-firmware-2009-11-07.hex'
p1081
sS'path'
p1082
S'atmega8'
p1083
sS'unlock_bits'
p1084
S'0x3F'
p1085
ssS'upload'
p1086
(dp1087
S'speed'
p1088
S'19200'
p1089
sS'maximum_size'
p1090
S'7168'
p1091
sS'protocol'
p1092
S'arduino'
p1093
ssS'name'
p1094
S'Arduino NG or older w/ ATmega8'
p1095
sg109
S'/usr/share/arduino/hardware/arduino'
p1096
saa(lp1097
S'robotControl'
p1098
a(dp1099
S'build'
p1100
(dp1101
S'core'
p1102
S'robot'
p1103
sS'f_cpu'
p1104
S'16000000L'
p1105
sS'vid'
p1106
S'0x2341'
p1107
sS'pid'
p1108
S'0x8038'
p1109
sS'variant'
p1110
S'robot_control'
p1111
sS'mcu'
p1112
S'atmega32u4'
p1113
ssS'bootloader'
p1114
(dp1115
S'extended_fuses'
p1116
S'0xcb'
p1117
sS'high_fuses'
p1118
S'0xd8'
p1119
sS'low_fuses'
p1120
S'0xff'
p1121
sS'lock_bits'
p1122
S'0x2F'
p1123
sS'file'
p1124
S'Caterina-Robot-Control.hex'
p1125
sS'path'
p1126
S'caterina-Arduino_Robot'
p1127
sS'unlock_bits'
p1128
S'0x3F'
p1129
ssS'upload'
p1130
(dp1131
S'speed'
p1132
S'57600'
p1133
sS'maximum_size'
p1134
S'28672'
p1135
sS'protocol'
p1136
S'avr109'
p1137
sS'disable_flushing'
p1138
S'true'
p1139
ssS'name'
p1140
S'Arduino Robot Control'
p1141
sg109
S'/usr/share/arduino/hardware/arduino'
p1142
saa(lp1143
S'robotMotor'
p1144
a(dp1145
S'build'
p1146
(dp1147
S'core'
p1148
S'robot'
p1149
sS'f_cpu'
p1150
S'16000000L'
p1151
sS'vid'
p1152
S'0x2341'
p1153
sS'pid'
p1154
S'0x8039'
p1155
sS'variant'
p1156
S'robot_motor'
p1157
sS'mcu'
p1158
S'atmega32u4'
p1159
ssS'bootloader'
p1160
(dp1161
S'extended_fuses'
p1162
S'0xcb'
p1163
sS'high_fuses'
p1164
S'0xd8'
p1165
sS'low_fuses'
p1166
S'0xff'
p1167
sS'lock_bits'
p1168
S'0x2F'
p1169
sS'file'
p1170
S'Caterina-Robot-Motor.hex'
p1171
sS'path'
p1172
S'caterina-Arduino_Robot'
p1173
sS'unlock_bits'
p1174
S'0x3F'
p1175
ssS'upload'
p1176
(dp1177
S'speed'
p1178
S'57600'
p1179
sS'maximum_size'
p1180
S'28672'
p1181
sS'protocol'
p1182
S'avr109'
p1183
sS'disable_flushing'
p1184
S'true'
p1185
ssS'name'
p1186
S'Arduino Robot Motor'
p1187
sg109
S'/usr/share/arduino/hardware/arduino'
p1188
saatp1189
Rp1190
(dp1191
S'default'
p1192
S'uno'
p1193
sbtp1194
a(S'used_libs'
p1195
(lp1196
S'lib/ShiftIn'
p1197
aS'lib/ShiftOut'
p1198
aS'/usr/share/arduino/hardware/arduino/cores/arduino'
p1199
atp1200
a(S'make'
p1201
S'/usr/share/arduino/hardware/tools/avr/bin/make'
p1202
tp1203
a(S'build_dir'
p1204
S'.build/uno'
p1205
tp1206
a(S'cc'
p1207
S'/usr/share/arduino/hardware/tools/avr/bin/avr-gcc'
p1208
tp1209
a(S'cflags'
p1210
g2
(g3
g4
(lp1211
tp1212
Rp1213
tp1214
a(S'cxxflags'
p1215
g2
(g3
g4
(lp1216
S'-fno-exceptions'
p1217
atp1218
Rp1219
tp1220
a(S'arduino_variants_dir'
p1221
S'/usr/share/arduino/hardware/arduino/variants'
p1222
tp1223
a(S'stty'
p1224
S'/bin/stty'
p1225
tp1226
a(S'version.txt'
p1227
S'/usr/share/arduino/lib/version.txt'
p1228
tp1229
a(S'arduino_core_dir'
p1230
g1199
tp1231
a(S'boards.txt'
p1232
(lp1233
S'/usr/share/arduino/hardware/arduino/boards.txt'
p1234
atp1235
a(S'avrdude.conf'
p1236
S'/usr/share/arduino/hardware/tools/avrdude.conf'
p1237
tp1238
a(S'deps'
p1239
g2
(g3
g4
(lp1240
S'.build/uno/src/dependencies.d'
p1241
aS'.build/uno/arduino/dependencies.d'
p1242
aS'.build/uno/ShiftIn/dependencies.d'
p1243
aS'.build/uno/ShiftOut/dependencies.d'
p1244
atp1245
Rp1246
tp1247
a.